ccopy_reg
_reconstructor
p1
(cmojom.parse.ast
Mojom
p2
c__builtin__
object
p3
NtRp4
(dp5
S'import_list'
p6
g1
(cmojom.parse.ast
ImportList
p7
g3
NtRp8
(dp9
S'items'
p10
(lp11
g1
(cmojom.parse.ast
Import
p12
g3
NtRp13
(dp14
S'attribute_list'
p15
NsS'lineno'
p16
I7
sS'import_filename'
p17
S'gpu/ipc/common/mailbox_holder.mojom'
p18
sS'filename'
p19
S'../../media/capture/mojom/video_capture_types.mojom'
p20
sbag1
(g12
g3
NtRp21
(dp22
g15
Nsg16
I8
sg17
S'mojo/public/mojom/base/time.mojom'
p23
sg19
g20
sbag1
(g12
g3
NtRp24
(dp25
g15
Nsg16
I9
sg17
S'mojo/public/mojom/base/values.mojom'
p26
sg19
g20
sbag1
(g12
g3
NtRp27
(dp28
g15
Nsg16
I10
sg17
S'ui/gfx/geometry/mojo/geometry.mojom'
p29
sg19
g20
sbasg16
I7
sg19
g20
sbsS'definition_list'
p30
(lp31
g1
(cmojom.parse.ast
Enum
p32
g3
NtRp33
(dp34
g15
NsS'enum_value_list'
p35
g1
(cmojom.parse.ast
EnumValueList
p36
g3
NtRp37
(dp38
g10
(lp39
g1
(cmojom.parse.ast
EnumValue
p40
g3
NtRp41
(dp42
g15
NsS'value'
p43
Nsg16
I13
sS'mojom_name'
p44
S'UNKNOWN'
p45
sg19
g20
sbag1
(g40
g3
NtRp46
(dp47
g15
Nsg43
Nsg16
I14
sg44
S'I420'
p48
sg19
g20
sbag1
(g40
g3
NtRp49
(dp50
g15
Nsg43
Nsg16
I15
sg44
S'YV12'
p51
sg19
g20
sbag1
(g40
g3
NtRp52
(dp53
g15
Nsg43
Nsg16
I16
sg44
S'I422'
p54
sg19
g20
sbag1
(g40
g3
NtRp55
(dp56
g15
Nsg43
Nsg16
I17
sg44
S'I420A'
p57
sg19
g20
sbag1
(g40
g3
NtRp58
(dp59
g15
Nsg43
Nsg16
I18
sg44
S'I444'
p60
sg19
g20
sbag1
(g40
g3
NtRp61
(dp62
g15
Nsg43
Nsg16
I19
sg44
S'NV12'
p63
sg19
g20
sbag1
(g40
g3
NtRp64
(dp65
g15
Nsg43
Nsg16
I20
sg44
S'NV21'
p66
sg19
g20
sbag1
(g40
g3
NtRp67
(dp68
g15
Nsg43
Nsg16
I21
sg44
S'UYVY'
p69
sg19
g20
sbag1
(g40
g3
NtRp70
(dp71
g15
Nsg43
Nsg16
I22
sg44
S'YUY2'
p72
sg19
g20
sbag1
(g40
g3
NtRp73
(dp74
g15
Nsg43
Nsg16
I23
sg44
S'ARGB'
p75
sg19
g20
sbag1
(g40
g3
NtRp76
(dp77
g15
Nsg43
Nsg16
I24
sg44
S'XRGB'
p78
sg19
g20
sbag1
(g40
g3
NtRp79
(dp80
g15
Nsg43
Nsg16
I25
sg44
S'RGB24'
p81
sg19
g20
sbag1
(g40
g3
NtRp82
(dp83
g15
Nsg43
Nsg16
I26
sg44
S'RGB32'
p84
sg19
g20
sbag1
(g40
g3
NtRp85
(dp86
g15
Nsg43
Nsg16
I27
sg44
S'MJPEG'
p87
sg19
g20
sbag1
(g40
g3
NtRp88
(dp89
g15
Nsg43
Nsg16
I28
sg44
S'MT21'
p90
sg19
g20
sbag1
(g40
g3
NtRp91
(dp92
g15
Nsg43
Nsg16
I29
sg44
S'YUV420P9'
p93
sg19
g20
sbag1
(g40
g3
NtRp94
(dp95
g15
Nsg43
Nsg16
I30
sg44
S'YUV420P10'
p96
sg19
g20
sbag1
(g40
g3
NtRp97
(dp98
g15
Nsg43
Nsg16
I31
sg44
S'YUV422P9'
p99
sg19
g20
sbag1
(g40
g3
NtRp100
(dp101
g15
Nsg43
Nsg16
I32
sg44
S'YUV422P10'
p102
sg19
g20
sbag1
(g40
g3
NtRp103
(dp104
g15
Nsg43
Nsg16
I33
sg44
S'YUV444P9'
p105
sg19
g20
sbag1
(g40
g3
NtRp106
(dp107
g15
Nsg43
Nsg16
I34
sg44
S'YUV444P10'
p108
sg19
g20
sbag1
(g40
g3
NtRp109
(dp110
g15
Nsg43
Nsg16
I35
sg44
S'YUV420P12'
p111
sg19
g20
sbag1
(g40
g3
NtRp112
(dp113
g15
Nsg43
Nsg16
I36
sg44
S'YUV422P12'
p114
sg19
g20
sbag1
(g40
g3
NtRp115
(dp116
g15
Nsg43
Nsg16
I37
sg44
S'YUV444P12'
p117
sg19
g20
sbag1
(g40
g3
NtRp118
(dp119
g15
Nsg43
Nsg16
I38
sg44
S'Y16'
p120
sg19
g20
sbasg16
I13
sg19
g20
sbsg16
I12
sg44
S'VideoCapturePixelFormat'
p121
sg19
g20
sbag1
(g32
g3
NtRp122
(dp123
g15
Nsg35
g1
(g36
g3
NtRp124
(dp125
g10
(lp126
g1
(g40
g3
NtRp127
(dp128
g15
Nsg43
Nsg16
I42
sg44
S'FIXED_RESOLUTION'
p129
sg19
g20
sbag1
(g40
g3
NtRp130
(dp131
g15
Nsg43
Nsg16
I43
sg44
S'FIXED_ASPECT_RATIO'
p132
sg19
g20
sbag1
(g40
g3
NtRp133
(dp134
g15
Nsg43
Nsg16
I44
sg44
S'ANY_WITHIN_LIMIT'
p135
sg19
g20
sbasg16
I42
sg19
g20
sbsg16
I41
sg44
S'ResolutionChangePolicy'
p136
sg19
g20
sbag1
(g32
g3
NtRp137
(dp138
g15
Nsg35
g1
(g36
g3
NtRp139
(dp140
g10
(lp141
g1
(g40
g3
NtRp142
(dp143
g15
Nsg43
Nsg16
I48
sg44
S'DEFAULT'
p144
sg19
g20
sbag1
(g40
g3
NtRp145
(dp146
g15
Nsg43
Nsg16
I49
sg44
S'HZ_50'
p147
sg19
g20
sbag1
(g40
g3
NtRp148
(dp149
g15
Nsg43
Nsg16
I50
sg44
S'HZ_60'
p150
sg19
g20
sbasg16
I48
sg19
g20
sbsg16
I47
sg44
S'PowerLineFrequency'
p151
sg19
g20
sbag1
(g32
g3
NtRp152
(dp153
g15
Nsg35
g1
(g36
g3
NtRp154
(dp155
g10
(lp156
g1
(g40
g3
NtRp157
(dp158
g15
Nsg43
Nsg16
I54
sg44
S'LINUX_V4L2_SINGLE_PLANE'
p159
sg19
g20
sbag1
(g40
g3
NtRp160
(dp161
g15
Nsg43
Nsg16
I55
sg44
S'WIN_MEDIA_FOUNDATION'
p162
sg19
g20
sbag1
(g40
g3
NtRp163
(dp164
g15
Nsg43
Nsg16
I56
sg44
S'WIN_MEDIA_FOUNDATION_SENSOR'
p165
sg19
g20
sbag1
(g40
g3
NtRp166
(dp167
g15
Nsg43
Nsg16
I57
sg44
S'WIN_DIRECT_SHOW'
p168
sg19
g20
sbag1
(g40
g3
NtRp169
(dp170
g15
Nsg43
Nsg16
I58
sg44
S'MACOSX_AVFOUNDATION'
p171
sg19
g20
sbag1
(g40
g3
NtRp172
(dp173
g15
Nsg43
Nsg16
I59
sg44
S'MACOSX_DECKLINK'
p174
sg19
g20
sbag1
(g40
g3
NtRp175
(dp176
g15
Nsg43
Nsg16
I60
sg44
S'ANDROID_API1'
p177
sg19
g20
sbag1
(g40
g3
NtRp178
(dp179
g15
Nsg43
Nsg16
I61
sg44
S'ANDROID_API2_LEGACY'
p180
sg19
g20
sbag1
(g40
g3
NtRp181
(dp182
g15
Nsg43
Nsg16
I62
sg44
S'ANDROID_API2_FULL'
p183
sg19
g20
sbag1
(g40
g3
NtRp184
(dp185
g15
Nsg43
Nsg16
I63
sg44
S'ANDROID_API2_LIMITED'
p186
sg19
g20
sbag1
(g40
g3
NtRp187
(dp188
g15
Nsg43
Nsg16
I64
sg44
S'UNKNOWN'
p189
sg19
g20
sbasg16
I54
sg19
g20
sbsg16
I53
sg44
S'VideoCaptureApi'
p190
sg19
g20
sbag1
(g32
g3
NtRp191
(dp192
g15
Nsg35
g1
(g36
g3
NtRp193
(dp194
g10
(lp195
g1
(g40
g3
NtRp196
(dp197
g15
Nsg43
Nsg16
I69
sg44
S'MACOSX_USB_OR_BUILT_IN'
p198
sg19
g20
sbag1
(g40
g3
NtRp199
(dp200
g15
Nsg43
Nsg16
I70
sg44
S'OTHER_TRANSPORT'
p201
sg19
g20
sbasg16
I69
sg19
g20
sbsg16
I67
sg44
S'VideoCaptureTransportType'
p202
sg19
g20
sbag1
(cmojom.parse.ast
Struct
p203
g3
NtRp204
(dp205
S'body'
p206
g1
(cmojom.parse.ast
StructBody
p207
g3
NtRp208
(dp209
g10
(lp210
g1
(cmojom.parse.ast
StructField
p211
g3
NtRp212
(dp213
S'ordinal'
p214
NsS'default_value'
p215
Nsg44
S'frame_size'
p216
sg15
Nsg19
NsS'typename'
p217
S'gfx.mojom.Size'
p218
sg16
Nsbag1
(g211
g3
NtRp219
(dp220
g214
Nsg215
Nsg44
S'frame_rate'
p221
sg15
Nsg19
Nsg217
S'float'
p222
sg16
Nsbag1
(g211
g3
NtRp223
(dp224
g214
Nsg215
Nsg44
S'pixel_format'
p225
sg15
Nsg19
Nsg217
S'VideoCapturePixelFormat'
p226
sg16
Nsbasg16
Nsg19
Nsbsg15
Nsg16
Nsg44
S'VideoCaptureFormat'
p227
sg19
Nsbag1
(g203
g3
NtRp228
(dp229
g206
g1
(g207
g3
NtRp230
(dp231
g10
(lp232
g1
(g211
g3
NtRp233
(dp234
g214
Nsg215
Nsg44
S'requested_format'
p235
sg15
Nsg19
Nsg217
S'VideoCaptureFormat'
p236
sg16
Nsbag1
(g211
g3
NtRp237
(dp238
g214
Nsg215
Nsg44
S'resolution_change_policy'
p239
sg15
Nsg19
Nsg217
S'ResolutionChangePolicy'
p240
sg16
Nsbag1
(g211
g3
NtRp241
(dp242
g214
Nsg215
Nsg44
S'power_line_frequency'
p243
sg15
Nsg19
Nsg217
S'PowerLineFrequency'
p244
sg16
Nsbasg16
Nsg19
Nsbsg15
Nsg16
Nsg44
S'VideoCaptureParams'
p245
sg19
Nsbag1
(g203
g3
NtRp246
(dp247
g206
g1
(g207
g3
NtRp248
(dp249
g10
(lp250
g1
(g211
g3
NtRp251
(dp252
g214
Nsg215
Nsg44
S'timestamp'
p253
sg15
Nsg19
Nsg217
S'mojo_base.mojom.TimeDelta'
p254
sg16
Nsbag1
(g211
g3
NtRp255
(dp256
g214
Nsg215
Nsg44
S'metadata'
p257
sg15
Nsg19
Nsg217
S'mojo_base.mojom.DictionaryValue'
p258
sg16
Nsbag1
(g211
g3
NtRp259
(dp260
g214
Nsg215
Nsg44
S'pixel_format'
p261
sg15
Nsg19
Nsg217
S'VideoCapturePixelFormat'
p262
sg16
Nsbag1
(g211
g3
NtRp263
(dp264
g214
Nsg215
Nsg44
S'coded_size'
p265
sg15
Nsg19
Nsg217
S'gfx.mojom.Size'
p266
sg16
Nsbag1
(g211
g3
NtRp267
(dp268
g214
Nsg215
Nsg44
S'visible_rect'
p269
sg15
Nsg19
Nsg217
S'gfx.mojom.Rect'
p270
sg16
Nsbasg16
Nsg19
Nsbsg15
Nsg16
Nsg44
S'VideoFrameInfo'
p271
sg19
Nsbag1
(g203
g3
NtRp272
(dp273
g206
g1
(g207
g3
NtRp274
(dp275
g10
(lp276
g1
(g211
g3
NtRp277
(dp278
g214
Nsg215
Nsg44
S'focal_length_x'
p279
sg15
Nsg19
Nsg217
S'double'
p280
sg16
Nsbag1
(g211
g3
NtRp281
(dp282
g214
Nsg215
Nsg44
S'focal_length_y'
p283
sg15
Nsg19
Nsg217
S'double'
p284
sg16
Nsbag1
(g211
g3
NtRp285
(dp286
g214
Nsg215
Nsg44
S'depth_near'
p287
sg15
Nsg19
Nsg217
S'double'
p288
sg16
Nsbag1
(g211
g3
NtRp289
(dp290
g214
Nsg215
Nsg44
S'depth_far'
p291
sg15
Nsg19
Nsg217
S'double'
p292
sg16
Nsbasg16
Nsg19
Nsbsg15
Nsg16
Nsg44
S'VideoCaptureDeviceDescriptorCameraCalibration'
p293
sg19
Nsbag1
(g203
g3
NtRp294
(dp295
g206
g1
(g207
g3
NtRp296
(dp297
g10
(lp298
g1
(g211
g3
NtRp299
(dp300
g214
Nsg215
Nsg44
S'display_name'
p301
sg15
Nsg19
Nsg217
S'string'
p302
sg16
Nsbag1
(g211
g3
NtRp303
(dp304
g214
Nsg215
Nsg44
S'device_id'
p305
sg15
Nsg19
Nsg217
S'string'
p306
sg16
Nsbag1
(g211
g3
NtRp307
(dp308
g214
Nsg215
Nsg44
S'model_id'
p309
sg15
Nsg19
Nsg217
S'string'
p310
sg16
Nsbag1
(g211
g3
NtRp311
(dp312
g214
Nsg215
Nsg44
S'capture_api'
p313
sg15
Nsg19
Nsg217
S'VideoCaptureApi'
p314
sg16
Nsbag1
(g211
g3
NtRp315
(dp316
g214
Nsg215
Nsg44
S'transport_type'
p317
sg15
Nsg19
Nsg217
S'VideoCaptureTransportType'
p318
sg16
Nsbag1
(g211
g3
NtRp319
(dp320
g214
Nsg215
Nsg44
S'camera_calibration'
p321
sg15
Nsg19
Nsg217
S'VideoCaptureDeviceDescriptorCameraCalibration?'
p322
sg16
Nsbasg16
Nsg19
Nsbsg15
Nsg16
Nsg44
S'VideoCaptureDeviceDescriptor'
p323
sg19
Nsbag1
(g203
g3
NtRp324
(dp325
g206
g1
(g207
g3
NtRp326
(dp327
g10
(lp328
g1
(g211
g3
NtRp329
(dp330
g214
Nsg215
Nsg44
S'descriptor'
p331
sg15
Nsg19
Nsg217
S'VideoCaptureDeviceDescriptor'
p332
sg16
Nsbag1
(g211
g3
NtRp333
(dp334
g214
Nsg215
Nsg44
S'supported_formats'
p335
sg15
Nsg19
Nsg217
S'VideoCaptureFormat[]'
p336
sg16
Nsbasg16
Nsg19
Nsbsg15
Nsg16
Nsg44
S'VideoCaptureDeviceInfo'
p337
sg19
Nsbag1
(g203
g3
NtRp338
(dp339
g206
g1
(g207
g3
NtRp340
(dp341
g10
(lp342
g1
(g211
g3
NtRp343
(dp344
g214
Nsg215
Nsg44
S'mailbox_holder'
p345
sg15
Nsg19
Nsg217
S'gpu.mojom.MailboxHolder[4]'
p346
sg16
Nsbasg16
Nsg19
Nsbsg15
Nsg16
Nsg44
S'MailboxBufferHandleSet'
p347
sg19
Nsbag1
(cmojom.parse.ast
Union
p348
g3
NtRp349
(dp350
g206
g1
(cmojom.parse.ast
UnionBody
p351
g3
NtRp352
(dp353
g10
(lp354
g1
(cmojom.parse.ast
UnionField
p355
g3
NtRp356
(dp357
g214
Nsg44
S'shared_buffer_handle'
p358
sg15
Nsg19
Nsg217
S'handle<shared_buffer>'
p359
sg16
Nsbag1
(g355
g3
NtRp360
(dp361
g214
Nsg44
S'mailbox_handles'
p362
sg15
Nsg19
Nsg217
S'MailboxBufferHandleSet'
p363
sg16
Nsbasg16
Nsg19
Nsbsg15
Nsg16
Nsg44
S'VideoBufferHandle'
p364
sg19
Nsbasg16
NsS'module'
p365
g1
(cmojom.parse.ast
Module
p366
g3
NtRp367
(dp368
S'mojom_namespace'
p369
(S'IDENTIFIER'
p370
S'media.mojom'
tp371
sg16
I5
sg15
Nsg19
g20
sbsg19
Nsb.