ccopy_reg
_reconstructor
p1
(cmojom.parse.ast
Mojom
p2
c__builtin__
object
p3
NtRp4
(dp5
S'import_list'
p6
g1
(cmojom.parse.ast
ImportList
p7
g3
NtRp8
(dp9
S'items'
p10
(lp11
sS'lineno'
p12
NsS'filename'
p13
NsbsS'definition_list'
p14
(lp15
g1
(cmojom.parse.ast
Interface
p16
g3
NtRp17
(dp18
S'body'
p19
g1
(cmojom.parse.ast
InterfaceBody
p20
g3
NtRp21
(dp22
g10
(lp23
g1
(cmojom.parse.ast
Method
p24
g3
NtRp25
(dp26
S'ordinal'
p27
NsS'mojom_name'
p28
S'GetIsolationMode'
p29
sS'parameter_list'
p30
g1
(cmojom.parse.ast
ParameterList
p31
g3
NtRp32
(dp33
g10
(lp34
sg12
Nsg13
NsbsS'attribute_list'
p35
Nsg13
Nsg12
NsS'response_parameter_list'
p36
g1
(g31
g3
NtRp37
(dp38
g10
(lp39
g1
(cmojom.parse.ast
Parameter
p40
g3
NtRp41
(dp42
g27
Nsg28
S'mode'
p43
sg35
Nsg13
S'../../content/browser/process_internals/process_internals.mojom'
p44
sS'typename'
p45
S'string'
p46
sg12
I12
sbasg12
I12
sg13
g44
sbsbag1
(g24
g3
NtRp47
(dp48
g27
Nsg28
S'GetIsolatedOrigins'
p49
sg30
g1
(g31
g3
NtRp50
(dp51
g10
(lp52
sg12
Nsg13
Nsbsg35
Nsg13
Nsg12
Nsg36
g1
(g31
g3
NtRp53
(dp54
g10
(lp55
g1
(g40
g3
NtRp56
(dp57
g27
Nsg28
S'isolated_origins'
p58
sg35
Nsg13
g44
sg45
S'string[]'
p59
sg12
I16
sbasg12
I16
sg13
g44
sbsbasg12
Nsg13
Nsbsg35
Nsg12
Nsg28
S'ProcessInternalsHandler'
p60
sg13
Nsbasg12
NsS'module'
p61
g1
(cmojom.parse.ast
Module
p62
g3
NtRp63
(dp64
S'mojom_namespace'
p65
(S'IDENTIFIER'
p66
S'mojom'
tp67
sg12
I5
sg35
Nsg13
g44
sbsg13
Nsb.