ccopy_reg
_reconstructor
p1
(cmojom.parse.ast
Mojom
p2
c__builtin__
object
p3
NtRp4
(dp5
S'import_list'
p6
g1
(cmojom.parse.ast
ImportList
p7
g3
NtRp8
(dp9
S'items'
p10
(lp11
g1
(cmojom.parse.ast
Import
p12
g3
NtRp13
(dp14
S'attribute_list'
p15
NsS'lineno'
p16
I7
sS'import_filename'
p17
S'media/mojo/interfaces/audio_data_pipe.mojom'
p18
sS'filename'
p19
S'../../media/mojo/interfaces/audio_output_stream.mojom'
p20
sbag1
(g12
g3
NtRp21
(dp22
g15
Nsg16
I8
sg17
S'media/mojo/interfaces/audio_parameters.mojom'
p23
sg19
g20
sbag1
(g12
g3
NtRp24
(dp25
g15
Nsg16
I9
sg17
S'media/mojo/interfaces/media_types.mojom'
p26
sg19
g20
sbasg16
I7
sg19
g20
sbsS'definition_list'
p27
(lp28
g1
(cmojom.parse.ast
Interface
p29
g3
NtRp30
(dp31
S'body'
p32
g1
(cmojom.parse.ast
InterfaceBody
p33
g3
NtRp34
(dp35
g10
(lp36
g1
(cmojom.parse.ast
Method
p37
g3
NtRp38
(dp39
S'ordinal'
p40
NsS'mojom_name'
p41
S'Play'
p42
sS'parameter_list'
p43
g1
(cmojom.parse.ast
ParameterList
p44
g3
NtRp45
(dp46
g10
(lp47
sg16
Nsg19
Nsbsg15
Nsg19
Nsg16
NsS'response_parameter_list'
p48
Nsbag1
(g37
g3
NtRp49
(dp50
g40
Nsg41
S'Pause'
p51
sg43
g1
(g44
g3
NtRp52
(dp53
g10
(lp54
sg16
Nsg19
Nsbsg15
Nsg19
Nsg16
Nsg48
Nsbag1
(g37
g3
NtRp55
(dp56
g40
Nsg41
S'SetVolume'
p57
sg43
g1
(g44
g3
NtRp58
(dp59
g10
(lp60
g1
(cmojom.parse.ast
Parameter
p61
g3
NtRp62
(dp63
g40
Nsg41
S'volume'
p64
sg15
Nsg19
g20
sS'typename'
p65
S'double'
p66
sg16
I25
sbasg16
I25
sg19
g20
sbsg15
Nsg19
Nsg16
Nsg48
Nsbasg16
Nsg19
Nsbsg15
Nsg16
Nsg41
S'AudioOutputStream'
p67
sg19
Nsbag1
(g29
g3
NtRp68
(dp69
g32
g1
(g33
g3
NtRp70
(dp71
g10
(lp72
g1
(cmojom.parse.ast
Enum
p73
g3
NtRp74
(dp75
g15
NsS'enum_value_list'
p76
g1
(cmojom.parse.ast
EnumValueList
p77
g3
NtRp78
(dp79
g10
(lp80
g1
(cmojom.parse.ast
EnumValue
p81
g3
NtRp82
(dp83
g15
NsS'value'
p84
S'0'
sg16
I41
sg41
S'kDefault'
p85
sg19
g20
sbag1
(g81
g3
NtRp86
(dp87
g15
Nsg84
S'1'
sg16
I45
sg41
S'kPlatformError'
p88
sg19
g20
sbag1
(g81
g3
NtRp89
(dp90
g15
Nsg84
S'2'
sg16
I46
sg41
S'kTerminatedByClient'
p91
sg19
g20
sbag1
(g81
g3
NtRp92
(dp93
g15
Nsg84
S'3'
sg16
I47
sg41
S'kStreamCreationFailed'
p94
sg19
g20
sbag1
(g81
g3
NtRp95
(dp96
g15
Nsg84
S'4'
sg16
I48
sg41
S'kDocumentDestroyed'
p97
sg19
g20
sbasg16
I41
sg19
g20
sbsg16
I38
sg41
S'DisconnectReason'
p98
sg19
g20
sbag1
(g37
g3
NtRp99
(dp100
g40
Nsg41
S'DidStartPlaying'
p101
sg43
g1
(g44
g3
NtRp102
(dp103
g10
(lp104
sg16
Nsg19
Nsbsg15
Nsg19
Nsg16
Nsg48
Nsbag1
(g37
g3
NtRp105
(dp106
g40
Nsg41
S'DidStopPlaying'
p107
sg43
g1
(g44
g3
NtRp108
(dp109
g10
(lp110
sg16
Nsg19
Nsbsg15
Nsg19
Nsg16
Nsg48
Nsbag1
(g37
g3
NtRp111
(dp112
g40
Nsg41
S'DidChangeAudibleState'
p113
sg43
g1
(g44
g3
NtRp114
(dp115
g10
(lp116
g1
(g61
g3
NtRp117
(dp118
g40
Nsg41
S'is_audible'
p119
sg15
Nsg19
g20
sg65
S'bool'
p120
sg16
I64
sbasg16
I64
sg19
g20
sbsg15
Nsg19
Nsg16
Nsg48
Nsbasg16
I38
sg19
g20
sbsg15
Nsg16
Nsg41
S'AudioOutputStreamObserver'
p121
sg19
Nsbag1
(g29
g3
NtRp122
(dp123
g32
g1
(g33
g3
NtRp124
(dp125
g10
(lp126
g1
(g37
g3
NtRp127
(dp128
g40
Nsg41
S'Acquire'
p129
sg43
g1
(g44
g3
NtRp130
(dp131
g10
(lp132
g1
(g61
g3
NtRp133
(dp134
g40
Nsg41
S'params'
p135
sg15
Nsg19
g20
sg65
S'AudioParameters'
p136
sg16
I73
sbag1
(g61
g3
NtRp137
(dp138
g40
Nsg41
S'client'
p139
sg15
Nsg19
g20
sg65
S'AudioOutputStreamProviderClient'
p140
sg16
I73
sbasg16
I73
sg19
g20
sbsg15
Nsg19
Nsg16
Nsg48
Nsbasg16
Nsg19
Nsbsg15
Nsg16
Nsg41
S'AudioOutputStreamProvider'
p141
sg19
Nsbag1
(g29
g3
NtRp142
(dp143
g32
g1
(g33
g3
NtRp144
(dp145
g10
(lp146
g1
(g37
g3
NtRp147
(dp148
g40
Nsg41
S'Created'
p149
sg43
g1
(g44
g3
NtRp150
(dp151
g10
(lp152
g1
(g61
g3
NtRp153
(dp154
g40
Nsg41
S'stream'
p155
sg15
Nsg19
g20
sg65
S'AudioOutputStream'
p156
sg16
I81
sbag1
(g61
g3
NtRp157
(dp158
g40
Nsg41
S'data_pipe'
p159
sg15
Nsg19
g20
sg65
S'AudioDataPipe'
p160
sg16
I81
sbasg16
I81
sg19
g20
sbsg15
Nsg19
Nsg16
Nsg48
Nsbasg16
Nsg19
Nsbsg15
Nsg16
Nsg41
S'AudioOutputStreamProviderClient'
p161
sg19
Nsbasg16
NsS'module'
p162
g1
(cmojom.parse.ast
Module
p163
g3
NtRp164
(dp165
S'mojom_namespace'
p166
(S'IDENTIFIER'
p167
S'media.mojom'
tp168
sg16
I5
sg15
Nsg19
g20
sbsg19
Nsb.