ccopy_reg
_reconstructor
p1
(cmojom.parse.ast
Mojom
p2
c__builtin__
object
p3
NtRp4
(dp5
S'import_list'
p6
g1
(cmojom.parse.ast
ImportList
p7
g3
NtRp8
(dp9
S'items'
p10
(lp11
g1
(cmojom.parse.ast
Import
p12
g3
NtRp13
(dp14
S'attribute_list'
p15
NsS'lineno'
p16
I7
sS'import_filename'
p17
S'media/mojo/interfaces/audio_decoder.mojom'
p18
sS'filename'
p19
S'../../media/mojo/interfaces/interface_factory.mojom'
p20
sbag1
(g12
g3
NtRp21
(dp22
g15
Nsg16
I8
sg17
S'media/mojo/interfaces/cdm_proxy.mojom'
p23
sg19
g20
sbag1
(g12
g3
NtRp24
(dp25
g15
Nsg16
I9
sg17
S'media/mojo/interfaces/decryptor.mojom'
p26
sg19
g20
sbag1
(g12
g3
NtRp27
(dp28
g15
Nsg16
I10
sg17
S'media/mojo/interfaces/content_decryption_module.mojom'
p29
sg19
g20
sbag1
(g12
g3
NtRp30
(dp31
g15
Nsg16
I11
sg17
S'media/mojo/interfaces/renderer.mojom'
p32
sg19
g20
sbag1
(g12
g3
NtRp33
(dp34
g15
Nsg16
I12
sg17
S'media/mojo/interfaces/video_decoder.mojom'
p35
sg19
g20
sbasg16
I7
sg19
g20
sbsS'definition_list'
p36
(lp37
g1
(cmojom.parse.ast
Enum
p38
g3
NtRp39
(dp40
g15
NsS'enum_value_list'
p41
g1
(cmojom.parse.ast
EnumValueList
p42
g3
NtRp43
(dp44
g10
(lp45
g1
(cmojom.parse.ast
EnumValue
p46
g3
NtRp47
(dp48
g15
NsS'value'
p49
Nsg16
I18
sS'mojom_name'
p50
S'kDefault'
p51
sg19
g20
sbag1
(g46
g3
NtRp52
(dp53
g15
g1
(cmojom.parse.ast
AttributeList
p54
g3
NtRp55
(dp56
g10
(lp57
g1
(cmojom.parse.ast
Attribute
p58
g3
NtRp59
(dp60
g49
S'is_android'
p61
sg16
I23
sS'key'
p62
S'EnableIf'
p63
sg19
g20
sbasg16
I23
sg19
g20
sbsg49
Nsg16
I24
sg50
S'kMediaPlayer'
p64
sg19
g20
sbag1
(g46
g3
NtRp65
(dp66
g15
g1
(g54
g3
NtRp67
(dp68
g10
(lp69
g1
(g58
g3
NtRp70
(dp71
g49
S'is_android'
p72
sg16
I31
sg62
S'EnableIf'
p73
sg19
g20
sbasg16
I31
sg19
g20
sbsg49
Nsg16
I32
sg50
S'kFlinging'
p74
sg19
g20
sbasg16
I18
sg19
g20
sbsg16
I15
sg50
S'HostedRendererType'
p75
sg19
g20
sbag1
(cmojom.parse.ast
Interface
p76
g3
NtRp77
(dp78
S'body'
p79
g1
(cmojom.parse.ast
InterfaceBody
p80
g3
NtRp81
(dp82
g10
(lp83
g1
(cmojom.parse.ast
Method
p84
g3
NtRp85
(dp86
S'ordinal'
p87
Nsg50
S'CreateAudioDecoder'
p88
sS'parameter_list'
p89
g1
(cmojom.parse.ast
ParameterList
p90
g3
NtRp91
(dp92
g10
(lp93
g1
(cmojom.parse.ast
Parameter
p94
g3
NtRp95
(dp96
g87
Nsg50
S'audio_decoder'
p97
sg15
Nsg19
g20
sS'typename'
p98
S'AudioDecoder&'
p99
sg16
I38
sbasg16
I38
sg19
g20
sbsg15
Nsg19
Nsg16
NsS'response_parameter_list'
p100
Nsbag1
(g84
g3
NtRp101
(dp102
g87
Nsg50
S'CreateVideoDecoder'
p103
sg89
g1
(g90
g3
NtRp104
(dp105
g10
(lp106
g1
(g94
g3
NtRp107
(dp108
g87
Nsg50
S'video_decoder'
p109
sg15
Nsg19
g20
sg98
S'VideoDecoder&'
p110
sg16
I39
sbasg16
I39
sg19
g20
sbsg15
Nsg19
Nsg16
Nsg100
Nsbag1
(g84
g3
NtRp111
(dp112
g87
Nsg50
S'CreateRenderer'
p113
sg89
g1
(g90
g3
NtRp114
(dp115
g10
(lp116
g1
(g94
g3
NtRp117
(dp118
g87
Nsg50
S'type'
p119
sg15
Nsg19
g20
sg98
S'HostedRendererType'
p120
sg16
I54
sbag1
(g94
g3
NtRp121
(dp122
g87
Nsg50
S'type_specific_id'
p123
sg15
Nsg19
g20
sg98
S'string'
p124
sg16
I54
sbag1
(g94
g3
NtRp125
(dp126
g87
Nsg50
S'renderer'
p127
sg15
Nsg19
g20
sg98
S'Renderer&'
p128
sg16
I55
sbasg16
I54
sg19
g20
sbsg15
Nsg19
Nsg16
Nsg100
Nsbag1
(g84
g3
NtRp129
(dp130
g87
Nsg50
S'CreateCdm'
p131
sg89
g1
(g90
g3
NtRp132
(dp133
g10
(lp134
g1
(g94
g3
NtRp135
(dp136
g87
Nsg50
S'key_system'
p137
sg15
Nsg19
g20
sg98
S'string'
p138
sg16
I62
sbag1
(g94
g3
NtRp139
(dp140
g87
Nsg50
S'cdm'
p141
sg15
Nsg19
g20
sg98
S'ContentDecryptionModule&'
p142
sg16
I62
sbasg16
I62
sg19
g20
sbsg15
Nsg19
Nsg16
Nsg100
Nsbag1
(g84
g3
NtRp143
(dp144
g87
Nsg50
S'CreateDecryptor'
p145
sg89
g1
(g90
g3
NtRp146
(dp147
g10
(lp148
g1
(g94
g3
NtRp149
(dp150
g87
Nsg50
S'cdm_id'
p151
sg15
Nsg19
g20
sg98
S'int32'
p152
sg16
I65
sbag1
(g94
g3
NtRp153
(dp154
g87
Nsg50
S'decryptor'
p155
sg15
Nsg19
g20
sg98
S'Decryptor&'
p156
sg16
I65
sbasg16
I65
sg19
g20
sbsg15
Nsg19
Nsg16
Nsg100
Nsbag1
(g84
g3
NtRp157
(dp158
g87
Nsg50
S'CreateCdmProxy'
p159
sg89
g1
(g90
g3
NtRp160
(dp161
g10
(lp162
g1
(g94
g3
NtRp163
(dp164
g87
Nsg50
S'cdm_guid'
p165
sg15
Nsg19
g20
sg98
S'string'
p166
sg16
I73
sbag1
(g94
g3
NtRp167
(dp168
g87
Nsg50
S'cdm_proxy'
p169
sg15
Nsg19
g20
sg98
S'CdmProxy&'
p170
sg16
I73
sbasg16
I73
sg19
g20
sbsg15
Nsg19
Nsg16
Nsg100
Nsbasg16
Nsg19
Nsbsg15
Nsg16
Nsg50
S'InterfaceFactory'
p171
sg19
Nsbasg16
NsS'module'
p172
g1
(cmojom.parse.ast
Module
p173
g3
NtRp174
(dp175
S'mojom_namespace'
p176
(S'IDENTIFIER'
p177
S'media.mojom'
tp178
sg16
I5
sg15
Nsg19
g20
sbsg19
Nsb.