ccopy_reg
_reconstructor
p1
(cmojom.parse.ast
Mojom
p2
c__builtin__
object
p3
NtRp4
(dp5
S'import_list'
p6
g1
(cmojom.parse.ast
ImportList
p7
g3
NtRp8
(dp9
S'items'
p10
(lp11
g1
(cmojom.parse.ast
Import
p12
g3
NtRp13
(dp14
S'attribute_list'
p15
NsS'lineno'
p16
I7
sS'import_filename'
p17
S'mojo/public/mojom/base/unguessable_token.mojom'
p18
sS'filename'
p19
S'../../media/mojo/interfaces/media_drm_storage.mojom'
p20
sbasg16
I7
sg19
g20
sbsS'definition_list'
p21
(lp22
g1
(cmojom.parse.ast
Struct
p23
g3
NtRp24
(dp25
S'body'
p26
g1
(cmojom.parse.ast
StructBody
p27
g3
NtRp28
(dp29
g10
(lp30
g1
(cmojom.parse.ast
StructField
p31
g3
NtRp32
(dp33
S'ordinal'
p34
NsS'default_value'
p35
NsS'mojom_name'
p36
S'key_set_id'
p37
sg15
Nsg19
NsS'typename'
p38
S'uint8[]'
p39
sg16
Nsbag1
(g31
g3
NtRp40
(dp41
g34
Nsg35
Nsg36
S'mime_type'
p42
sg15
Nsg19
Nsg38
S'string'
p43
sg16
Nsbasg16
Nsg19
Nsbsg15
Nsg16
Nsg36
S'SessionData'
p44
sg19
Nsbag1
(cmojom.parse.ast
Interface
p45
g3
NtRp46
(dp47
g26
g1
(cmojom.parse.ast
InterfaceBody
p48
g3
NtRp49
(dp50
g10
(lp51
g1
(cmojom.parse.ast
Method
p52
g3
NtRp53
(dp54
g34
Nsg36
S'Initialize'
p55
sS'parameter_list'
p56
g1
(cmojom.parse.ast
ParameterList
p57
g3
NtRp58
(dp59
g10
(lp60
sg16
Nsg19
Nsbsg15
Nsg19
Nsg16
NsS'response_parameter_list'
p61
g1
(g57
g3
NtRp62
(dp63
g10
(lp64
g1
(cmojom.parse.ast
Parameter
p65
g3
NtRp66
(dp67
g34
Nsg36
S'origin_id'
p68
sg15
Nsg19
g20
sg38
S'mojo_base.mojom.UnguessableToken'
p69
sg16
I21
sbasg16
I21
sg19
g20
sbsbag1
(g52
g3
NtRp70
(dp71
g34
Nsg36
S'OnProvisioned'
p72
sg56
g1
(g57
g3
NtRp73
(dp74
g10
(lp75
sg16
Nsg19
Nsbsg15
Nsg19
Nsg16
Nsg61
g1
(g57
g3
NtRp76
(dp77
g10
(lp78
g1
(g65
g3
NtRp79
(dp80
g34
Nsg36
S'success'
p81
sg15
Nsg19
g20
sg38
S'bool'
p82
sg16
I25
sbasg16
I25
sg19
g20
sbsbag1
(g52
g3
NtRp83
(dp84
g34
Nsg36
S'SavePersistentSession'
p85
sg56
g1
(g57
g3
NtRp86
(dp87
g10
(lp88
g1
(g65
g3
NtRp89
(dp90
g34
Nsg36
S'session_id'
p91
sg15
Nsg19
g20
sg38
S'string'
p92
sg16
I29
sbag1
(g65
g3
NtRp93
(dp94
g34
Nsg36
S'session_data'
p95
sg15
Nsg19
g20
sg38
S'SessionData'
p96
sg16
I29
sbasg16
I29
sg19
g20
sbsg15
Nsg19
Nsg16
Nsg61
g1
(g57
g3
NtRp97
(dp98
g10
(lp99
g1
(g65
g3
NtRp100
(dp101
g34
Nsg36
S'success'
p102
sg15
Nsg19
g20
sg38
S'bool'
p103
sg16
I29
sbasg16
I29
sg19
g20
sbsbag1
(g52
g3
NtRp104
(dp105
g34
Nsg36
S'LoadPersistentSession'
p106
sg56
g1
(g57
g3
NtRp107
(dp108
g10
(lp109
g1
(g65
g3
NtRp110
(dp111
g34
Nsg36
S'session_id'
p112
sg15
Nsg19
g20
sg38
S'string'
p113
sg16
I33
sbasg16
I33
sg19
g20
sbsg15
Nsg19
Nsg16
Nsg61
g1
(g57
g3
NtRp114
(dp115
g10
(lp116
g1
(g65
g3
NtRp117
(dp118
g34
Nsg36
S'session_data'
p119
sg15
Nsg19
g20
sg38
S'SessionData?'
p120
sg16
I33
sbasg16
I33
sg19
g20
sbsbag1
(g52
g3
NtRp121
(dp122
g34
Nsg36
S'RemovePersistentSession'
p123
sg56
g1
(g57
g3
NtRp124
(dp125
g10
(lp126
g1
(g65
g3
NtRp127
(dp128
g34
Nsg36
S'session_id'
p129
sg15
Nsg19
g20
sg38
S'string'
p130
sg16
I36
sbasg16
I36
sg19
g20
sbsg15
Nsg19
Nsg16
Nsg61
g1
(g57
g3
NtRp131
(dp132
g10
(lp133
g1
(g65
g3
NtRp134
(dp135
g34
Nsg36
S'success'
p136
sg15
Nsg19
g20
sg38
S'bool'
p137
sg16
I36
sbasg16
I36
sg19
g20
sbsbasg16
Nsg19
Nsbsg15
Nsg16
Nsg36
S'MediaDrmStorage'
p138
sg19
Nsbasg16
NsS'module'
p139
g1
(cmojom.parse.ast
Module
p140
g3
NtRp141
(dp142
S'mojom_namespace'
p143
(S'IDENTIFIER'
p144
S'media.mojom'
tp145
sg16
I5
sg15
Nsg19
g20
sbsg19
Nsb.