ccopy_reg
_reconstructor
p1
(cmojom.parse.ast
Mojom
p2
c__builtin__
object
p3
NtRp4
(dp5
S'import_list'
p6
g1
(cmojom.parse.ast
ImportList
p7
g3
NtRp8
(dp9
S'items'
p10
(lp11
sS'lineno'
p12
NsS'filename'
p13
NsbsS'definition_list'
p14
(lp15
g1
(cmojom.parse.ast
Enum
p16
g3
NtRp17
(dp18
S'attribute_list'
p19
NsS'enum_value_list'
p20
g1
(cmojom.parse.ast
EnumValueList
p21
g3
NtRp22
(dp23
g10
(lp24
g1
(cmojom.parse.ast
EnumValue
p25
g3
NtRp26
(dp27
g19
NsS'value'
p28
Nsg12
I8
sS'mojom_name'
p29
S'kTLS1'
p30
sg13
S'../../services/network/public/mojom/ssl_config.mojom'
p31
sbag1
(g25
g3
NtRp32
(dp33
g19
Nsg28
Nsg12
I9
sg29
S'kTLS11'
p34
sg13
g31
sbag1
(g25
g3
NtRp35
(dp36
g19
Nsg28
Nsg12
I10
sg29
S'kTLS12'
p37
sg13
g31
sbag1
(g25
g3
NtRp38
(dp39
g19
Nsg28
Nsg12
I11
sg29
S'kTLS13'
p40
sg13
g31
sbasg12
I8
sg13
g31
sbsg12
I7
sg29
S'SSLVersion'
p41
sg13
g31
sbag1
(g16
g3
NtRp42
(dp43
g19
Nsg20
g1
(g21
g3
NtRp44
(dp45
g10
(lp46
g1
(g25
g3
NtRp47
(dp48
g19
Nsg28
Nsg12
I16
sg29
S'kDraft23'
p49
sg13
g31
sbag1
(g25
g3
NtRp50
(dp51
g19
Nsg28
Nsg12
I17
sg29
S'kDraft28'
p52
sg13
g31
sbag1
(g25
g3
NtRp53
(dp54
g19
Nsg28
Nsg12
I18
sg29
S'kFinal'
p55
sg13
g31
sbasg12
I16
sg13
g31
sbsg12
I15
sg29
S'TLS13Variant'
p56
sg13
g31
sbag1
(cmojom.parse.ast
Struct
p57
g3
NtRp58
(dp59
S'body'
p60
g1
(cmojom.parse.ast
StructBody
p61
g3
NtRp62
(dp63
g10
(lp64
g1
(cmojom.parse.ast
StructField
p65
g3
NtRp66
(dp67
S'ordinal'
p68
NsS'default_value'
p69
S'false'
p70
sg29
S'rev_checking_enabled'
p71
sg19
Nsg13
NsS'typename'
p72
S'bool'
p73
sg12
Nsbag1
(g65
g3
NtRp74
(dp75
g68
Nsg69
S'false'
p76
sg29
S'rev_checking_required_local_anchors'
p77
sg19
Nsg13
Nsg72
S'bool'
p78
sg12
Nsbag1
(g65
g3
NtRp79
(dp80
g68
Nsg69
S'false'
p81
sg29
S'sha1_local_anchors_enabled'
p82
sg19
Nsg13
Nsg72
S'bool'
p83
sg12
Nsbag1
(g65
g3
NtRp84
(dp85
g68
Nsg69
S'false'
p86
sg29
S'symantec_enforcement_disabled'
p87
sg19
Nsg13
Nsg72
S'bool'
p88
sg12
Nsbag1
(g65
g3
NtRp89
(dp90
g68
Nsg69
(S'IDENTIFIER'
p91
S'kTLS1'
tp92
sg29
S'version_min'
p93
sg19
Nsg13
Nsg72
S'SSLVersion'
p94
sg12
Nsbag1
(g65
g3
NtRp95
(dp96
g68
Nsg69
(g91
S'kTLS13'
tp97
sg29
S'version_max'
p98
sg19
Nsg13
Nsg72
S'SSLVersion'
p99
sg12
Nsbag1
(g65
g3
NtRp100
(dp101
g68
Nsg69
(g91
S'kFinal'
tp102
sg29
S'tls13_variant'
p103
sg19
Nsg13
Nsg72
S'TLS13Variant'
p104
sg12
Nsbag1
(g65
g3
NtRp105
(dp106
g68
Nsg69
Nsg29
S'disabled_cipher_suites'
p107
sg19
Nsg13
Nsg72
S'uint16[]'
p108
sg12
Nsbasg12
Nsg13
Nsbsg19
Nsg12
Nsg29
S'SSLConfig'
p109
sg13
Nsbag1
(cmojom.parse.ast
Interface
p110
g3
NtRp111
(dp112
g60
g1
(cmojom.parse.ast
InterfaceBody
p113
g3
NtRp114
(dp115
g10
(lp116
g1
(cmojom.parse.ast
Method
p117
g3
NtRp118
(dp119
g68
Nsg29
S'OnSSLConfigUpdated'
p120
sS'parameter_list'
p121
g1
(cmojom.parse.ast
ParameterList
p122
g3
NtRp123
(dp124
g10
(lp125
g1
(cmojom.parse.ast
Parameter
p126
g3
NtRp127
(dp128
g68
Nsg29
S'ssl_config'
p129
sg19
Nsg13
g31
sg72
S'SSLConfig'
p130
sg12
I47
sbasg12
I47
sg13
g31
sbsg19
Nsg13
Nsg12
NsS'response_parameter_list'
p131
Nsbasg12
Nsg13
Nsbsg19
Nsg12
Nsg29
S'SSLConfigClient'
p132
sg13
Nsbasg12
NsS'module'
p133
g1
(cmojom.parse.ast
Module
p134
g3
NtRp135
(dp136
S'mojom_namespace'
p137
(g91
S'network.mojom'
tp138
sg12
I5
sg19
Nsg13
g31
sbsg13
Nsb.