ccopy_reg
_reconstructor
p1
(cmojom.parse.ast
Mojom
p2
c__builtin__
object
p3
NtRp4
(dp5
S'import_list'
p6
g1
(cmojom.parse.ast
ImportList
p7
g3
NtRp8
(dp9
S'items'
p10
(lp11
g1
(cmojom.parse.ast
Import
p12
g3
NtRp13
(dp14
S'attribute_list'
p15
NsS'lineno'
p16
I7
sS'import_filename'
p17
S'content/common/navigation_params.mojom'
p18
sS'filename'
p19
S'../../content/common/frame.mojom'
p20
sbag1
(g12
g3
NtRp21
(dp22
g15
Nsg16
I8
sg17
S'content/common/service_worker/controller_service_worker.mojom'
p23
sg19
g20
sbag1
(g12
g3
NtRp24
(dp25
g15
Nsg16
I9
sg17
S'content/common/url_loader_factory_bundle.mojom'
p26
sg19
g20
sbag1
(g12
g3
NtRp27
(dp28
g15
Nsg16
I10
sg17
S'content/public/common/resource_type.mojom'
p29
sg19
g20
sbag1
(g12
g3
NtRp30
(dp31
g15
Nsg16
I11
sg17
S'content/public/common/resource_load_info.mojom'
p32
sg19
g20
sbag1
(g12
g3
NtRp33
(dp34
g15
Nsg16
I12
sg17
S'content/public/common/transferrable_url_loader.mojom'
p35
sg19
g20
sbag1
(g12
g3
NtRp36
(dp37
g15
Nsg16
I13
sg17
S'content/public/common/window_container_type.mojom'
p38
sg19
g20
sbag1
(g12
g3
NtRp39
(dp40
g15
Nsg16
I14
sg17
S'mojo/public/mojom/base/string16.mojom'
p41
sg19
g20
sbag1
(g12
g3
NtRp42
(dp43
g15
Nsg16
I15
sg17
S'mojo/public/mojom/base/unguessable_token.mojom'
p44
sg19
g20
sbag1
(g12
g3
NtRp45
(dp46
g15
Nsg16
I16
sg17
S'services/network/public/mojom/url_loader.mojom'
p47
sg19
g20
sbag1
(g12
g3
NtRp48
(dp49
g15
Nsg16
I17
sg17
S'services/service_manager/public/mojom/interface_provider.mojom'
p50
sg19
g20
sbag1
(g12
g3
NtRp51
(dp52
g15
Nsg16
I18
sg17
S'services/viz/public/interfaces/compositing/surface_id.mojom'
p53
sg19
g20
sbag1
(g12
g3
NtRp54
(dp55
g15
Nsg16
I19
sg17
S'third_party/blink/public/mojom/blob/blob_url_store.mojom'
p56
sg19
g20
sbag1
(g12
g3
NtRp57
(dp58
g15
Nsg16
I20
sg17
S'third_party/blink/public/mojom/feature_policy/feature_policy.mojom'
p59
sg19
g20
sbag1
(g12
g3
NtRp60
(dp61
g15
Nsg16
I21
sg17
S'third_party/blink/public/platform/referrer.mojom'
p62
sg19
g20
sbag1
(g12
g3
NtRp63
(dp64
g15
Nsg16
I22
sg17
S'third_party/blink/public/web/commit_result.mojom'
p65
sg19
g20
sbag1
(g12
g3
NtRp66
(dp67
g15
Nsg16
I23
sg17
S'third_party/blink/public/web/window_features.mojom'
p68
sg19
g20
sbag1
(g12
g3
NtRp69
(dp70
g15
Nsg16
I24
sg17
S'ui/base/mojo/window_open_disposition.mojom'
p71
sg19
g20
sbag1
(g12
g3
NtRp72
(dp73
g15
Nsg16
I25
sg17
S'url/mojom/url.mojom'
p74
sg19
g20
sbag1
(g12
g3
NtRp75
(dp76
g15
Nsg16
I26
sg17
S'ui/gfx/geometry/mojo/geometry.mojom'
p77
sg19
g20
sbasg16
I7
sg19
g20
sbsS'definition_list'
p78
(lp79
g1
(cmojom.parse.ast
Const
p80
g3
NtRp81
(dp82
S'mojom_name'
p83
S'kNavigation_FrameSpec'
p84
sg15
NsS'value'
p85
S'"navigation:frame"'
p86
sg19
NsS'typename'
p87
S'string'
p88
sg16
Nsbag1
(cmojom.parse.ast
Interface
p89
g3
NtRp90
(dp91
S'body'
p92
g1
(cmojom.parse.ast
InterfaceBody
p93
g3
NtRp94
(dp95
g10
(lp96
g1
(cmojom.parse.ast
Method
p97
g3
NtRp98
(dp99
S'ordinal'
p100
Nsg83
S'GetInterfaceProvider'
p101
sS'parameter_list'
p102
g1
(cmojom.parse.ast
ParameterList
p103
g3
NtRp104
(dp105
g10
(lp106
g1
(cmojom.parse.ast
Parameter
p107
g3
NtRp108
(dp109
g100
Nsg83
S'interfaces'
p110
sg15
Nsg19
g20
sg87
S'service_manager.mojom.InterfaceProvider&'
p111
sg16
I34
sbasg16
I34
sg19
g20
sbsg15
Nsg19
Nsg16
NsS'response_parameter_list'
p112
Nsbag1
(g97
g3
NtRp113
(dp114
g100
Nsg83
S'GetCanonicalUrlForSharing'
p115
sg102
g1
(g103
g3
NtRp116
(dp117
g10
(lp118
sg16
Nsg19
Nsbsg15
Nsg19
Nsg16
Nsg112
g1
(g103
g3
NtRp119
(dp120
g10
(lp121
g1
(g107
g3
NtRp122
(dp123
g100
Nsg83
S'canonical_url'
p124
sg15
Nsg19
g20
sg87
S'url.mojom.Url?'
p125
sg16
I35
sbasg16
I35
sg19
g20
sbsbag1
(g97
g3
NtRp126
(dp127
g100
Nsg83
S'ExtractSmartClipData'
p128
sg102
g1
(g103
g3
NtRp129
(dp130
g10
(lp131
g1
(g107
g3
NtRp132
(dp133
g100
Nsg83
S'rect'
p134
sg15
Nsg19
g20
sg87
S'gfx.mojom.Rect'
p135
sg16
I40
sbasg16
I40
sg19
g20
sbsg15
g1
(cmojom.parse.ast
AttributeList
p136
g3
NtRp137
(dp138
g10
(lp139
g1
(cmojom.parse.ast
Attribute
p140
g3
NtRp141
(dp142
g85
S'is_android'
p143
sg16
I39
sS'key'
p144
S'EnableIf'
p145
sg19
g20
sbasg16
I39
sg19
g20
sbsg19
Nsg16
Nsg112
g1
(g103
g3
NtRp146
(dp147
g10
(lp148
g1
(g107
g3
NtRp149
(dp150
g100
Nsg83
S'text'
p151
sg15
Nsg19
g20
sg87
S'mojo_base.mojom.String16'
p152
sg16
I41
sbag1
(g107
g3
NtRp153
(dp154
g100
Nsg83
S'html'
p155
sg15
Nsg19
g20
sg87
S'mojo_base.mojom.String16'
p156
sg16
I41
sbag1
(g107
g3
NtRp157
(dp158
g100
Nsg83
S'clip_rect'
p159
sg15
Nsg19
g20
sg87
S'gfx.mojom.Rect'
p160
sg16
I42
sbasg16
I41
sg19
g20
sbsbasg16
Nsg19
Nsbsg15
Nsg16
Nsg83
S'Frame'
p161
sg19
Nsbag1
(cmojom.parse.ast
Struct
p162
g3
NtRp163
(dp164
g92
Nsg15
g1
(g136
g3
NtRp165
(dp166
g10
(lp167
g1
(g140
g3
NtRp168
(dp169
g85
I01
sg16
I46
sg144
S'Native'
p170
sg19
g20
sbasg16
I46
sg19
g20
sbsg16
Nsg83
S'CommonNavigationParams'
p171
sg19
Nsbag1
(g162
g3
NtRp172
(dp173
g92
Nsg15
g1
(g136
g3
NtRp174
(dp175
g10
(lp176
g1
(g140
g3
NtRp177
(dp178
g85
I01
sg16
I50
sg144
S'Native'
p179
sg19
g20
sbasg16
I50
sg19
g20
sbsg16
Nsg83
S'RequestNavigationParams'
p180
sg19
Nsbag1
(g89
g3
NtRp181
(dp182
g92
g1
(g93
g3
NtRp183
(dp184
g10
(lp185
g1
(g97
g3
NtRp186
(dp187
g100
Nsg83
S'CommitNavigation'
p188
sg102
g1
(g103
g3
NtRp189
(dp190
g10
(lp191
g1
(g107
g3
NtRp192
(dp193
g100
Nsg83
S'head'
p194
sg15
Nsg19
g20
sg87
S'network.mojom.URLResponseHead'
p195
sg16
I85
sbag1
(g107
g3
NtRp196
(dp197
g100
Nsg83
S'common_params'
p198
sg15
Nsg19
g20
sg87
S'CommonNavigationParams'
p199
sg16
I86
sbag1
(g107
g3
NtRp200
(dp201
g100
Nsg83
S'request_params'
p202
sg15
Nsg19
g20
sg87
S'RequestNavigationParams'
p203
sg16
I87
sbag1
(g107
g3
NtRp204
(dp205
g100
Nsg83
S'url_loader_client_endpoints'
p206
sg15
Nsg19
g20
sg87
S'network.mojom.URLLoaderClientEndpoints?'
p207
sg16
I88
sbag1
(g107
g3
NtRp208
(dp209
g100
Nsg83
S'subresource_loader_factories'
p210
sg15
Nsg19
g20
sg87
S'URLLoaderFactoryBundle?'
p211
sg16
I89
sbag1
(g107
g3
NtRp212
(dp213
g100
Nsg83
S'subresource_overrides'
p214
sg15
Nsg19
g20
sg87
S'TransferrableURLLoader[]?'
p215
sg16
I90
sbag1
(g107
g3
NtRp216
(dp217
g100
Nsg83
S'controller_service_worker_info'
p218
sg15
Nsg19
g20
sg87
S'ControllerServiceWorkerInfo?'
p219
sg16
I91
sbag1
(g107
g3
NtRp220
(dp221
g100
Nsg83
S'devtools_navigation_token'
p222
sg15
Nsg19
g20
sg87
S'mojo_base.mojom.UnguessableToken'
p223
sg16
I92
sbasg16
I85
sg19
g20
sbsg15
Nsg19
Nsg16
Nsg112
Nsbag1
(g97
g3
NtRp224
(dp225
g100
Nsg83
S'CommitFailedNavigation'
p226
sg102
g1
(g103
g3
NtRp227
(dp228
g10
(lp229
g1
(g107
g3
NtRp230
(dp231
g100
Nsg83
S'common_params'
p232
sg15
Nsg19
g20
sg87
S'CommonNavigationParams'
p233
sg16
I104
sbag1
(g107
g3
NtRp234
(dp235
g100
Nsg83
S'request_params'
p236
sg15
Nsg19
g20
sg87
S'RequestNavigationParams'
p237
sg16
I105
sbag1
(g107
g3
NtRp238
(dp239
g100
Nsg83
S'has_stale_copy_in_cache'
p240
sg15
Nsg19
g20
sg87
S'bool'
p241
sg16
I106
sbag1
(g107
g3
NtRp242
(dp243
g100
Nsg83
S'error_code'
p244
sg15
Nsg19
g20
sg87
S'int32'
p245
sg16
I107
sbag1
(g107
g3
NtRp246
(dp247
g100
Nsg83
S'error_page_content'
p248
sg15
Nsg19
g20
sg87
S'string?'
p249
sg16
I108
sbag1
(g107
g3
NtRp250
(dp251
g100
Nsg83
S'subresource_loader_factories'
p252
sg15
Nsg19
g20
sg87
S'URLLoaderFactoryBundle?'
p253
sg16
I109
sbasg16
I104
sg19
g20
sbsg15
Nsg19
Nsg16
Nsg112
Nsbag1
(g97
g3
NtRp254
(dp255
g100
Nsg83
S'CommitSameDocumentNavigation'
p256
sg102
g1
(g103
g3
NtRp257
(dp258
g10
(lp259
g1
(g107
g3
NtRp260
(dp261
g100
Nsg83
S'common_params'
p262
sg15
Nsg19
g20
sg87
S'CommonNavigationParams'
p263
sg16
I117
sbag1
(g107
g3
NtRp264
(dp265
g100
Nsg83
S'request_params'
p266
sg15
Nsg19
g20
sg87
S'RequestNavigationParams'
p267
sg16
I118
sbasg16
I117
sg19
g20
sbsg15
Nsg19
Nsg16
Nsg112
g1
(g103
g3
NtRp268
(dp269
g10
(lp270
g1
(g107
g3
NtRp271
(dp272
g100
Nsg83
S'commit_result'
p273
sg15
Nsg19
g20
sg87
S'blink.mojom.CommitResult'
p274
sg16
I119
sbasg16
I119
sg19
g20
sbsbag1
(g97
g3
NtRp275
(dp276
g100
Nsg83
S'HandleRendererDebugURL'
p277
sg102
g1
(g103
g3
NtRp278
(dp279
g10
(lp280
g1
(g107
g3
NtRp281
(dp282
g100
Nsg83
S'url'
p283
sg15
Nsg19
g20
sg87
S'url.mojom.Url'
p284
sg16
I122
sbasg16
I122
sg19
g20
sbsg15
Nsg19
Nsg16
Nsg112
Nsbag1
(g97
g3
NtRp285
(dp286
g100
Nsg83
S'UpdateSubresourceLoaderFactories'
p287
sg102
g1
(g103
g3
NtRp288
(dp289
g10
(lp290
g1
(g107
g3
NtRp291
(dp292
g100
Nsg83
S'subresource_loader_factories'
p293
sg15
Nsg19
g20
sg87
S'URLLoaderFactoryBundle'
p294
sg16
I132
sbasg16
I132
sg19
g20
sbsg15
Nsg19
Nsg16
Nsg112
Nsbasg16
Nsg19
Nsbsg15
Nsg16
Nsg83
S'FrameNavigationControl'
p295
sg19
Nsbag1
(g89
g3
NtRp296
(dp297
g92
g1
(g93
g3
NtRp298
(dp299
g10
(lp300
g1
(g97
g3
NtRp301
(dp302
g100
Nsg83
S'AllowBindings'
p303
sg102
g1
(g103
g3
NtRp304
(dp305
g10
(lp306
g1
(g107
g3
NtRp307
(dp308
g100
Nsg83
S'enabled_bindings_flags'
p309
sg15
Nsg19
g20
sg87
S'int32'
p310
sg16
I142
sbasg16
I142
sg19
g20
sbsg15
Nsg19
Nsg16
Nsg112
Nsbasg16
Nsg19
Nsbsg15
Nsg16
Nsg83
S'FrameBindingsControl'
p311
sg19
Nsbag1
(g89
g3
NtRp312
(dp313
g92
g1
(g93
g3
NtRp314
(dp315
g10
(lp316
g1
(g97
g3
NtRp317
(dp318
g100
Nsg83
S'CreateFrame'
p319
sg102
g1
(g103
g3
NtRp320
(dp321
g10
(lp322
g1
(g107
g3
NtRp323
(dp324
g100
Nsg83
S'frame_routing_id'
p325
sg15
Nsg19
g20
sg87
S'int32'
p326
sg16
I148
sbag1
(g107
g3
NtRp327
(dp328
g100
Nsg83
S'frame'
p329
sg15
Nsg19
g20
sg87
S'Frame&'
p330
sg16
I148
sbasg16
I148
sg19
g20
sbsg15
Nsg19
Nsg16
Nsg112
Nsbasg16
Nsg19
Nsbsg15
Nsg16
Nsg83
S'FrameFactory'
p331
sg19
Nsbag1
(g162
g3
NtRp332
(dp333
g92
g1
(cmojom.parse.ast
StructBody
p334
g3
NtRp335
(dp336
g10
(lp337
g1
(cmojom.parse.ast
StructField
p338
g3
NtRp339
(dp340
g100
NsS'default_value'
p341
Nsg83
S'user_gesture'
p342
sg15
Nsg19
Nsg87
S'bool'
p343
sg16
Nsbag1
(g338
g3
NtRp344
(dp345
g100
Nsg341
Nsg83
S'window_container_type'
p346
sg15
Nsg19
Nsg87
S'WindowContainerType'
p347
sg16
Nsbag1
(g338
g3
NtRp348
(dp349
g100
Nsg341
Nsg83
S'session_storage_namespace_id'
p350
sg15
Nsg19
Nsg87
S'string'
p351
sg16
Nsbag1
(g338
g3
NtRp352
(dp353
g100
Nsg341
Nsg83
S'clone_from_session_storage_namespace_id'
p354
sg15
Nsg19
Nsg87
S'string'
p355
sg16
Nsbag1
(g338
g3
NtRp356
(dp357
g100
Nsg341
Nsg83
S'frame_name'
p358
sg15
Nsg19
Nsg87
S'string'
p359
sg16
Nsbag1
(g338
g3
NtRp360
(dp361
g100
Nsg341
Nsg83
S'opener_suppressed'
p362
sg15
Nsg19
Nsg87
S'bool'
p363
sg16
Nsbag1
(g338
g3
NtRp364
(dp365
g100
Nsg341
Nsg83
S'disposition'
p366
sg15
Nsg19
Nsg87
S'ui.mojom.WindowOpenDisposition'
p367
sg16
Nsbag1
(g338
g3
NtRp368
(dp369
g100
Nsg341
Nsg83
S'target_url'
p370
sg15
Nsg19
Nsg87
S'url.mojom.Url'
p371
sg16
Nsbag1
(g338
g3
NtRp372
(dp373
g100
Nsg341
Nsg83
S'referrer'
p374
sg15
Nsg19
Nsg87
S'blink.mojom.Referrer'
p375
sg16
Nsbag1
(g338
g3
NtRp376
(dp377
g100
Nsg341
Nsg83
S'features'
p378
sg15
Nsg19
Nsg87
S'blink.mojom.WindowFeatures'
p379
sg16
Nsbasg16
Nsg19
Nsbsg15
Nsg16
Nsg83
S'CreateNewWindowParams'
p380
sg19
Nsbag1
(cmojom.parse.ast
Enum
p381
g3
NtRp382
(dp383
g15
NsS'enum_value_list'
p384
g1
(cmojom.parse.ast
EnumValueList
p385
g3
NtRp386
(dp387
g10
(lp388
g1
(cmojom.parse.ast
EnumValue
p389
g3
NtRp390
(dp391
g15
Nsg85
Nsg16
I193
sg83
S'kIgnore'
p392
sg19
g20
sbag1
(g389
g3
NtRp393
(dp394
g15
Nsg85
Nsg16
I195
sg83
S'kReuse'
p395
sg19
g20
sbag1
(g389
g3
NtRp396
(dp397
g15
Nsg85
Nsg16
I197
sg83
S'kSuccess'
p398
sg19
g20
sbasg16
I193
sg19
g20
sbsg16
I190
sg83
S'CreateNewWindowStatus'
p399
sg19
g20
sbag1
(g162
g3
NtRp400
(dp401
g92
g1
(g334
g3
NtRp402
(dp403
g10
(lp404
g1
(g338
g3
NtRp405
(dp406
g100
Nsg341
Nsg83
S'route_id'
p407
sg15
Nsg19
Nsg87
S'int32'
p408
sg16
Nsbag1
(g338
g3
NtRp409
(dp410
g100
Nsg341
Nsg83
S'main_frame_route_id'
p411
sg15
Nsg19
Nsg87
S'int32'
p412
sg16
Nsbag1
(g338
g3
NtRp413
(dp414
g100
Nsg341
Nsg83
S'main_frame_widget_route_id'
p415
sg15
Nsg19
Nsg87
S'int32'
p416
sg16
Nsbag1
(g338
g3
NtRp417
(dp418
g100
Nsg341
Nsg83
S'main_frame_interface_provider'
p419
sg15
Nsg19
Nsg87
S'service_manager.mojom.InterfaceProvider'
p420
sg16
Nsbag1
(g338
g3
NtRp421
(dp422
g100
Nsg341
Nsg83
S'cloned_session_storage_namespace_id'
p423
sg15
Nsg19
Nsg87
S'string'
p424
sg16
Nsbag1
(g338
g3
NtRp425
(dp426
g100
Nsg341
Nsg83
S'devtools_main_frame_token'
p427
sg15
Nsg19
Nsg87
S'mojo_base.mojom.UnguessableToken'
p428
sg16
Nsbasg16
Nsg19
Nsbsg15
Nsg16
Nsg83
S'CreateNewWindowReply'
p429
sg19
Nsbag1
(g89
g3
NtRp430
(dp431
g92
g1
(g93
g3
NtRp432
(dp433
g10
(lp434
sg16
Nsg19
Nsbsg15
Nsg16
Nsg83
S'KeepAliveHandle'
p435
sg19
Nsbag1
(g162
g3
NtRp436
(dp437
g92
Nsg15
g1
(g136
g3
NtRp438
(dp439
g10
(lp440
g1
(g140
g3
NtRp441
(dp442
g85
I01
sg16
I231
sg144
S'Native'
p443
sg19
g20
sbasg16
I231
sg19
g20
sbsg16
Nsg83
S'DidCommitProvisionalLoadParams'
p444
sg19
Nsbag1
(g89
g3
NtRp445
(dp446
g92
g1
(g93
g3
NtRp447
(dp448
g10
(lp449
g1
(g97
g3
NtRp450
(dp451
g100
Nsg83
S'CreateNewWindow'
p452
sg102
g1
(g103
g3
NtRp453
(dp454
g10
(lp455
g1
(g107
g3
NtRp456
(dp457
g100
Nsg83
S'params'
p458
sg15
Nsg19
g20
sg87
S'CreateNewWindowParams'
p459
sg16
I239
sbasg16
I239
sg19
g20
sbsg15
g1
(g136
g3
NtRp460
(dp461
g10
(lp462
g1
(g140
g3
NtRp463
(dp464
g85
I01
sg16
I239
sg144
S'Sync'
p465
sg19
g20
sbasg16
I239
sg19
g20
sbsg19
Nsg16
Nsg112
g1
(g103
g3
NtRp466
(dp467
g10
(lp468
g1
(g107
g3
NtRp469
(dp470
g100
Nsg83
S'status'
p471
sg15
Nsg19
g20
sg87
S'CreateNewWindowStatus'
p472
sg16
I240
sbag1
(g107
g3
NtRp473
(dp474
g100
Nsg83
S'reply'
p475
sg15
Nsg19
g20
sg87
S'CreateNewWindowReply?'
p476
sg16
I240
sbasg16
I240
sg19
g20
sbsbag1
(g97
g3
NtRp477
(dp478
g100
Nsg83
S'IssueKeepAliveHandle'
p479
sg102
g1
(g103
g3
NtRp480
(dp481
g10
(lp482
g1
(g107
g3
NtRp483
(dp484
g100
Nsg83
S'keep_alive_handle'
p485
sg15
Nsg19
g20
sg87
S'KeepAliveHandle&'
p486
sg16
I243
sbasg16
I243
sg19
g20
sbsg15
Nsg19
Nsg16
Nsg112
Nsbag1
(g97
g3
NtRp487
(dp488
g100
Nsg83
S'DidCommitProvisionalLoad'
p489
sg102
g1
(g103
g3
NtRp490
(dp491
g10
(lp492
g1
(g107
g3
NtRp493
(dp494
g100
Nsg83
S'params'
p495
sg15
Nsg19
g20
sg87
S'DidCommitProvisionalLoadParams'
p496
sg16
I260
sbag1
(g107
g3
NtRp497
(dp498
g100
Nsg83
S'interface_provider_request'
p499
sg15
Nsg19
g20
sg87
S'service_manager.mojom.InterfaceProvider&?'
p500
sg16
I261
sbasg16
I260
sg19
g20
sbsg15
Nsg19
Nsg16
Nsg112
Nsbag1
(g97
g3
NtRp501
(dp502
g100
Nsg83
S'DidCommitSameDocumentNavigation'
p503
sg102
g1
(g103
g3
NtRp504
(dp505
g10
(lp506
g1
(g107
g3
NtRp507
(dp508
g100
Nsg83
S'params'
p509
sg15
Nsg19
g20
sg87
S'DidCommitProvisionalLoadParams'
p510
sg16
I266
sbasg16
I266
sg19
g20
sbsg15
Nsg19
Nsg16
Nsg112
Nsbag1
(g97
g3
NtRp511
(dp512
g100
Nsg83
S'BeginNavigation'
p513
sg102
g1
(g103
g3
NtRp514
(dp515
g10
(lp516
g1
(g107
g3
NtRp517
(dp518
g100
Nsg83
S'common_params'
p519
sg15
Nsg19
g20
sg87
S'CommonNavigationParams'
p520
sg16
I278
sbag1
(g107
g3
NtRp521
(dp522
g100
Nsg83
S'begin_params'
p523
sg15
Nsg19
g20
sg87
S'BeginNavigationParams'
p524
sg16
I279
sbag1
(g107
g3
NtRp525
(dp526
g100
Nsg83
S'blob_url_token'
p527
sg15
Nsg19
g20
sg87
S'blink.mojom.BlobURLToken?'
p528
sg16
I280
sbasg16
I278
sg19
g20
sbsg15
Nsg19
Nsg16
Nsg112
Nsbag1
(g97
g3
NtRp529
(dp530
g100
Nsg83
S'SubresourceResponseStarted'
p531
sg102
g1
(g103
g3
NtRp532
(dp533
g10
(lp534
g1
(g107
g3
NtRp535
(dp536
g100
Nsg83
S'url'
p537
sg15
Nsg19
g20
sg87
S'url.mojom.Url'
p538
sg16
I285
sbag1
(g107
g3
NtRp539
(dp540
g100
Nsg83
S'cert_status'
p541
sg15
Nsg19
g20
sg87
S'uint32'
p542
sg16
I285
sbasg16
I285
sg19
g20
sbsg15
Nsg19
Nsg16
Nsg112
Nsbag1
(g97
g3
NtRp543
(dp544
g100
Nsg83
S'ResourceLoadComplete'
p545
sg102
g1
(g103
g3
NtRp546
(dp547
g10
(lp548
g1
(g107
g3
NtRp549
(dp550
g100
Nsg83
S'url_load_info'
p551
sg15
Nsg19
g20
sg87
S'ResourceLoadInfo'
p552
sg16
I288
sbasg16
I288
sg19
g20
sbsg15
Nsg19
Nsg16
Nsg112
Nsbag1
(g97
g3
NtRp553
(dp554
g100
Nsg83
S'DidChangeName'
p555
sg102
g1
(g103
g3
NtRp556
(dp557
g10
(lp558
g1
(g107
g3
NtRp559
(dp560
g100
Nsg83
S'name'
p561
sg15
Nsg19
g20
sg87
S'string'
p562
sg16
I291
sbag1
(g107
g3
NtRp563
(dp564
g100
Nsg83
S'unique_name'
p565
sg15
Nsg19
g20
sg87
S'string'
p566
sg16
I291
sbasg16
I291
sg19
g20
sbsg15
Nsg19
Nsg16
Nsg112
Nsbag1
(g97
g3
NtRp567
(dp568
g100
Nsg83
S'EnforceInsecureRequestPolicy'
p569
sg102
g1
(g103
g3
NtRp570
(dp571
g10
(lp572
g1
(g107
g3
NtRp573
(dp574
g100
Nsg83
S'policy_bitmap'
p575
sg15
Nsg19
g20
sg87
S'uint8'
p576
sg16
I300
sbasg16
I300
sg19
g20
sbsg15
Nsg19
Nsg16
Nsg112
Nsbag1
(g97
g3
NtRp577
(dp578
g100
Nsg83
S'EnforceInsecureNavigationsSet'
p579
sg102
g1
(g103
g3
NtRp580
(dp581
g10
(lp582
g1
(g107
g3
NtRp583
(dp584
g100
Nsg83
S'set'
p585
sg15
Nsg19
g20
sg87
S'uint32[]'
p586
sg16
I302
sbasg16
I302
sg19
g20
sbsg15
Nsg19
Nsg16
Nsg112
Nsbag1
(g97
g3
NtRp587
(dp588
g100
Nsg83
S'DidSetFramePolicyHeaders'
p589
sg102
g1
(g103
g3
NtRp590
(dp591
g10
(lp592
g1
(g107
g3
NtRp593
(dp594
g100
Nsg83
S'sandbox_flags'
p595
sg15
Nsg19
g20
sg87
S'blink.mojom.WebSandboxFlags'
p596
sg16
I312
sbag1
(g107
g3
NtRp597
(dp598
g100
Nsg83
S'parsed_header'
p599
sg15
Nsg19
g20
sg87
S'blink.mojom.ParsedFeaturePolicyDeclaration[]'
p600
sg16
I313
sbasg16
I312
sg19
g20
sbsg15
Nsg19
Nsg16
Nsg112
Nsbag1
(g97
g3
NtRp601
(dp602
g100
Nsg83
S'CancelInitialHistoryLoad'
p603
sg102
g1
(g103
g3
NtRp604
(dp605
g10
(lp606
sg16
Nsg19
Nsbsg15
Nsg19
Nsg16
Nsg112
Nsbag1
(g97
g3
NtRp607
(dp608
g100
Nsg83
S'UpdateEncoding'
p609
sg102
g1
(g103
g3
NtRp610
(dp611
g10
(lp612
g1
(g107
g3
NtRp613
(dp614
g100
Nsg83
S'encoding_name'
p615
sg15
Nsg19
g20
sg87
S'string'
p616
sg16
I322
sbasg16
I322
sg19
g20
sbsg15
Nsg19
Nsg16
Nsg112
Nsbag1
(g97
g3
NtRp617
(dp618
g100
Nsg83
S'FrameSizeChanged'
p619
sg102
g1
(g103
g3
NtRp620
(dp621
g10
(lp622
g1
(g107
g3
NtRp623
(dp624
g100
Nsg83
S'size'
p625
sg15
Nsg19
g20
sg87
S'gfx.mojom.Size'
p626
sg16
I327
sbasg16
I327
sg19
g20
sbsg15
Nsg19
Nsg16
Nsg112
Nsbasg16
Nsg19
Nsbsg15
Nsg16
Nsg83
S'FrameHost'
p627
sg19
Nsbasg16
NsS'module'
p628
g1
(cmojom.parse.ast
Module
p629
g3
NtRp630
(dp631
S'mojom_namespace'
p632
(S'IDENTIFIER'
p633
S'content.mojom'
tp634
sg16
I5
sg15
Nsg19
g20
sbsg19
Nsb.