ccopy_reg
_reconstructor
p1
(cmojom.parse.ast
Mojom
p2
c__builtin__
object
p3
NtRp4
(dp5
S'import_list'
p6
g1
(cmojom.parse.ast
ImportList
p7
g3
NtRp8
(dp9
S'items'
p10
(lp11
g1
(cmojom.parse.ast
Import
p12
g3
NtRp13
(dp14
S'attribute_list'
p15
NsS'lineno'
p16
I7
sS'import_filename'
p17
S'mojo/public/mojom/base/process_id.mojom'
p18
sS'filename'
p19
S'../../services/resource_coordinator/public/mojom/memory_instrumentation/memory_instrumentation.mojom'
p20
sbasg16
I7
sg19
g20
sbsS'definition_list'
p21
(lp22
g1
(cmojom.parse.ast
Enum
p23
g3
NtRp24
(dp25
g15
NsS'enum_value_list'
p26
g1
(cmojom.parse.ast
EnumValueList
p27
g3
NtRp28
(dp29
g10
(lp30
g1
(cmojom.parse.ast
EnumValue
p31
g3
NtRp32
(dp33
g15
NsS'value'
p34
Nsg16
I12
sS'mojom_name'
p35
S'PERIODIC_INTERVAL'
p36
sg19
g20
sbag1
(g31
g3
NtRp37
(dp38
g15
Nsg34
Nsg16
I13
sg35
S'EXPLICITLY_TRIGGERED'
p39
sg19
g20
sbag1
(g31
g3
NtRp40
(dp41
g15
Nsg34
Nsg16
I14
sg35
S'PEAK_MEMORY_USAGE'
p42
sg19
g20
sbag1
(g31
g3
NtRp43
(dp44
g15
Nsg34
Nsg16
I15
sg35
S'SUMMARY_ONLY'
p45
sg19
g20
sbasg16
I12
sg19
g20
sbsg16
I11
sg35
S'DumpType'
p46
sg19
g20
sbag1
(g23
g3
NtRp47
(dp48
g15
Nsg26
g1
(g27
g3
NtRp49
(dp50
g10
(lp51
g1
(g31
g3
NtRp52
(dp53
g15
Nsg34
Nsg16
I19
sg35
S'BACKGROUND'
p54
sg19
g20
sbag1
(g31
g3
NtRp55
(dp56
g15
Nsg34
Nsg16
I20
sg35
S'LIGHT'
p57
sg19
g20
sbag1
(g31
g3
NtRp58
(dp59
g15
Nsg34
Nsg16
I21
sg35
S'DETAILED'
p60
sg19
g20
sbasg16
I19
sg19
g20
sbsg16
I18
sg35
S'LevelOfDetail'
p61
sg19
g20
sbag1
(g23
g3
NtRp62
(dp63
g15
Nsg26
g1
(g27
g3
NtRp64
(dp65
g10
(lp66
g1
(g31
g3
NtRp67
(dp68
g15
Nsg34
Nsg16
I25
sg35
S'OTHER'
p69
sg19
g20
sbag1
(g31
g3
NtRp70
(dp71
g15
Nsg34
Nsg16
I26
sg35
S'BROWSER'
p72
sg19
g20
sbag1
(g31
g3
NtRp73
(dp74
g15
Nsg34
Nsg16
I27
sg35
S'RENDERER'
p75
sg19
g20
sbag1
(g31
g3
NtRp76
(dp77
g15
Nsg34
Nsg16
I28
sg35
S'GPU'
p78
sg19
g20
sbag1
(g31
g3
NtRp79
(dp80
g15
Nsg34
Nsg16
I29
sg35
S'UTILITY'
p81
sg19
g20
sbag1
(g31
g3
NtRp82
(dp83
g15
Nsg34
Nsg16
I30
sg35
S'PLUGIN'
p84
sg19
g20
sbasg16
I25
sg19
g20
sbsg16
I24
sg35
S'ProcessType'
p85
sg19
g20
sbag1
(g23
g3
NtRp86
(dp87
g15
Nsg26
g1
(g27
g3
NtRp88
(dp89
g10
(lp90
g1
(g31
g3
NtRp91
(dp92
g15
Nsg34
Nsg16
I36
sg35
S'NONE'
p93
sg19
g20
sbag1
(g31
g3
NtRp94
(dp95
g15
Nsg34
Nsg16
I40
sg35
S'MODULES'
p96
sg19
g20
sbag1
(g31
g3
NtRp97
(dp98
g15
Nsg34
Nsg16
I43
sg35
S'FULL'
p99
sg19
g20
sbasg16
I36
sg19
g20
sbsg16
I33
sg35
S'MemoryMapOption'
p100
sg19
g20
sbag1
(cmojom.parse.ast
Struct
p101
g3
NtRp102
(dp103
S'body'
p104
g1
(cmojom.parse.ast
StructBody
p105
g3
NtRp106
(dp107
g10
(lp108
g1
(cmojom.parse.ast
StructField
p109
g3
NtRp110
(dp111
S'ordinal'
p112
NsS'default_value'
p113
Nsg35
S'dump_guid'
p114
sg15
Nsg19
NsS'typename'
p115
S'uint64'
p116
sg16
Nsbag1
(g109
g3
NtRp117
(dp118
g112
Nsg113
Nsg35
S'dump_type'
p119
sg15
Nsg19
Nsg115
S'DumpType'
p120
sg16
Nsbag1
(g109
g3
NtRp121
(dp122
g112
Nsg113
Nsg35
S'level_of_detail'
p123
sg15
Nsg19
Nsg115
S'LevelOfDetail'
p124
sg16
Nsbasg16
Nsg19
Nsbsg15
Nsg16
Nsg35
S'RequestArgs'
p125
sg19
Nsbag1
(g101
g3
NtRp126
(dp127
g104
g1
(g105
g3
NtRp128
(dp129
g10
(lp130
g1
(g109
g3
NtRp131
(dp132
g112
Nsg113
Nsg35
S'source_id'
p133
sg15
Nsg19
Nsg115
S'uint64'
p134
sg16
Nsbag1
(g109
g3
NtRp135
(dp136
g112
Nsg113
Nsg35
S'target_id'
p137
sg15
Nsg19
Nsg115
S'uint64'
p138
sg16
Nsbag1
(g109
g3
NtRp139
(dp140
g112
Nsg113
Nsg35
S'importance'
p141
sg15
Nsg19
Nsg115
S'int64'
p142
sg16
Nsbag1
(g109
g3
NtRp143
(dp144
g112
Nsg113
Nsg35
S'overridable'
p145
sg15
Nsg19
Nsg115
S'bool'
p146
sg16
Nsbasg16
Nsg19
Nsbsg15
Nsg16
Nsg35
S'RawAllocatorDumpEdge'
p147
sg19
Nsbag1
(cmojom.parse.ast
Union
p148
g3
NtRp149
(dp150
g104
g1
(cmojom.parse.ast
UnionBody
p151
g3
NtRp152
(dp153
g10
(lp154
g1
(cmojom.parse.ast
UnionField
p155
g3
NtRp156
(dp157
g112
Nsg35
S'value_uint64'
p158
sg15
Nsg19
Nsg115
S'uint64'
p159
sg16
Nsbag1
(g155
g3
NtRp160
(dp161
g112
Nsg35
S'value_string'
p162
sg15
Nsg19
Nsg115
S'string'
p163
sg16
Nsbasg16
Nsg19
Nsbsg15
Nsg16
Nsg35
S'RawAllocatorDumpEntryValue'
p164
sg19
Nsbag1
(g101
g3
NtRp165
(dp166
g104
g1
(g105
g3
NtRp167
(dp168
g10
(lp169
g1
(g109
g3
NtRp170
(dp171
g112
Nsg113
Nsg35
S'name'
p172
sg15
Nsg19
Nsg115
S'string'
p173
sg16
Nsbag1
(g109
g3
NtRp174
(dp175
g112
Nsg113
Nsg35
S'units'
p176
sg15
Nsg19
Nsg115
S'string'
p177
sg16
Nsbag1
(g109
g3
NtRp178
(dp179
g112
Nsg113
Nsg35
S'value'
p180
sg15
Nsg19
Nsg115
S'RawAllocatorDumpEntryValue'
p181
sg16
Nsbasg16
Nsg19
Nsbsg15
Nsg16
Nsg35
S'RawAllocatorDumpEntry'
p182
sg19
Nsbag1
(g101
g3
NtRp183
(dp184
g104
g1
(g105
g3
NtRp185
(dp186
g10
(lp187
g1
(g109
g3
NtRp188
(dp189
g112
Nsg113
Nsg35
S'id'
p190
sg15
Nsg19
Nsg115
S'uint64'
p191
sg16
Nsbag1
(g109
g3
NtRp192
(dp193
g112
Nsg113
Nsg35
S'absolute_name'
p194
sg15
Nsg19
Nsg115
S'string'
p195
sg16
Nsbag1
(g109
g3
NtRp196
(dp197
g112
Nsg113
Nsg35
S'weak'
p198
sg15
Nsg19
Nsg115
S'bool'
p199
sg16
Nsbag1
(g109
g3
NtRp200
(dp201
g112
Nsg113
Nsg35
S'level_of_detail'
p202
sg15
Nsg19
Nsg115
S'LevelOfDetail'
p203
sg16
Nsbag1
(g109
g3
NtRp204
(dp205
g112
Nsg113
Nsg35
S'entries'
p206
sg15
Nsg19
Nsg115
S'RawAllocatorDumpEntry[]'
p207
sg16
Nsbasg16
Nsg19
Nsbsg15
Nsg16
Nsg35
S'RawAllocatorDump'
p208
sg19
Nsbag1
(g101
g3
NtRp209
(dp210
g104
g1
(g105
g3
NtRp211
(dp212
g10
(lp213
g1
(g109
g3
NtRp214
(dp215
g112
Nsg113
Nsg35
S'level_of_detail'
p216
sg15
Nsg19
Nsg115
S'LevelOfDetail'
p217
sg16
Nsbag1
(g109
g3
NtRp218
(dp219
g112
Nsg113
Nsg35
S'allocator_dump_edges'
p220
sg15
Nsg19
Nsg115
S'RawAllocatorDumpEdge[]'
p221
sg16
Nsbag1
(g109
g3
NtRp222
(dp223
g112
Nsg113
Nsg35
S'allocator_dumps'
p224
sg15
Nsg19
Nsg115
S'RawAllocatorDump[]'
p225
sg16
Nsbasg16
Nsg19
Nsbsg15
Nsg16
Nsg35
S'RawProcessMemoryDump'
p226
sg19
Nsbag1
(g101
g3
NtRp227
(dp228
g104
g1
(g105
g3
NtRp229
(dp230
g10
(lp231
g1
(cmojom.parse.ast
Const
p232
g3
NtRp233
(dp234
g35
S'kProtectionFlagsRead'
p235
sg15
Nsg34
S'4'
sg19
Nsg115
S'uint32'
p236
sg16
Nsbag1
(g232
g3
NtRp237
(dp238
g35
S'kProtectionFlagsWrite'
p239
sg15
Nsg34
S'2'
sg19
Nsg115
S'uint32'
p240
sg16
Nsbag1
(g232
g3
NtRp241
(dp242
g35
S'kProtectionFlagsExec'
p243
sg15
Nsg34
S'1'
sg19
Nsg115
S'uint32'
p244
sg16
Nsbag1
(g232
g3
NtRp245
(dp246
g35
S'kProtectionFlagsMayshare'
p247
sg15
Nsg34
S'128'
p248
sg19
Nsg115
S'uint32'
p249
sg16
Nsbag1
(g109
g3
NtRp250
(dp251
g112
Nsg113
Nsg35
S'start_address'
p252
sg15
Nsg19
Nsg115
S'uint64'
p253
sg16
Nsbag1
(g109
g3
NtRp254
(dp255
g112
Nsg113
Nsg35
S'size_in_bytes'
p256
sg15
Nsg19
Nsg115
S'uint64'
p257
sg16
Nsbag1
(g109
g3
NtRp258
(dp259
g112
Nsg113
Nsg35
S'module_timestamp'
p260
sg15
Nsg19
Nsg115
S'uint64'
p261
sg16
Nsbag1
(g109
g3
NtRp262
(dp263
g112
Nsg113
Nsg35
S'module_debugid'
p264
sg15
Nsg19
Nsg115
S'string'
p265
sg16
Nsbag1
(g109
g3
NtRp266
(dp267
g112
Nsg113
Nsg35
S'module_debug_path'
p268
sg15
Nsg19
Nsg115
S'string'
p269
sg16
Nsbag1
(g109
g3
NtRp270
(dp271
g112
Nsg113
Nsg35
S'protection_flags'
p272
sg15
Nsg19
Nsg115
S'uint32'
p273
sg16
Nsbag1
(g109
g3
NtRp274
(dp275
g112
Nsg113
Nsg35
S'mapped_file'
p276
sg15
Nsg19
Nsg115
S'string'
p277
sg16
Nsbag1
(g109
g3
NtRp278
(dp279
g112
Nsg113
Nsg35
S'byte_stats_private_dirty_resident'
p280
sg15
Nsg19
Nsg115
S'uint64'
p281
sg16
Nsbag1
(g109
g3
NtRp282
(dp283
g112
Nsg113
Nsg35
S'byte_stats_private_clean_resident'
p284
sg15
Nsg19
Nsg115
S'uint64'
p285
sg16
Nsbag1
(g109
g3
NtRp286
(dp287
g112
Nsg113
Nsg35
S'byte_stats_shared_dirty_resident'
p288
sg15
Nsg19
Nsg115
S'uint64'
p289
sg16
Nsbag1
(g109
g3
NtRp290
(dp291
g112
Nsg113
Nsg35
S'byte_stats_shared_clean_resident'
p292
sg15
Nsg19
Nsg115
S'uint64'
p293
sg16
Nsbag1
(g109
g3
NtRp294
(dp295
g112
Nsg113
Nsg35
S'byte_stats_swapped'
p296
sg15
Nsg19
Nsg115
S'uint64'
p297
sg16
Nsbag1
(g109
g3
NtRp298
(dp299
g112
Nsg113
Nsg35
S'byte_stats_proportional_resident'
p300
sg15
Nsg19
Nsg115
S'uint64'
p301
sg16
Nsbasg16
Nsg19
Nsbsg15
Nsg16
Nsg35
S'VmRegion'
p302
sg19
Nsbag1
(g101
g3
NtRp303
(dp304
g104
g1
(g105
g3
NtRp305
(dp306
g10
(lp307
g1
(g109
g3
NtRp308
(dp309
g112
Nsg113
S'0'
sg35
S'phys_footprint_bytes'
p310
sg15
Nsg19
Nsg115
S'uint64'
p311
sg16
Nsbag1
(g109
g3
NtRp312
(dp313
g112
Nsg113
S'0'
sg35
S'internal_bytes'
p314
sg15
Nsg19
Nsg115
S'uint64'
p315
sg16
Nsbag1
(g109
g3
NtRp316
(dp317
g112
Nsg113
S'0'
sg35
S'compressed_bytes'
p318
sg15
Nsg19
Nsg115
S'uint64'
p319
sg16
Nsbag1
(g109
g3
NtRp320
(dp321
g112
Nsg113
S'0'
sg35
S'rss_anon_bytes'
p322
sg15
Nsg19
Nsg115
S'uint64'
p323
sg16
Nsbag1
(g109
g3
NtRp324
(dp325
g112
Nsg113
S'0'
sg35
S'vm_swap_bytes'
p326
sg15
Nsg19
Nsg115
S'uint64'
p327
sg16
Nsbag1
(g109
g3
NtRp328
(dp329
g112
Nsg113
S'0'
sg35
S'private_bytes'
p330
sg15
Nsg19
Nsg115
S'uint64'
p331
sg16
Nsbasg16
Nsg19
Nsbsg15
Nsg16
Nsg35
S'PlatformPrivateFootprint'
p332
sg19
Nsbag1
(g101
g3
NtRp333
(dp334
g104
g1
(g105
g3
NtRp335
(dp336
g10
(lp337
g1
(g109
g3
NtRp338
(dp339
g112
Nsg113
S'0'
sg35
S'resident_set_kb'
p340
sg15
Nsg19
Nsg115
S'uint32'
p341
sg16
Nsbag1
(g109
g3
NtRp342
(dp343
g112
Nsg113
Nsg35
S'platform_private_footprint'
p344
sg15
Nsg19
Nsg115
S'PlatformPrivateFootprint'
p345
sg16
Nsbag1
(g109
g3
NtRp346
(dp347
g112
Nsg113
Nsg35
S'memory_maps'
p348
sg15
Nsg19
Nsg115
S'VmRegion[]'
p349
sg16
Nsbasg16
Nsg19
Nsbsg15
Nsg16
Nsg35
S'RawOSMemDump'
p350
sg19
Nsbag1
(g101
g3
NtRp351
(dp352
g104
g1
(g105
g3
NtRp353
(dp354
g10
(lp355
g1
(g109
g3
NtRp356
(dp357
g112
Nsg113
S'0'
sg35
S'resident_set_kb'
p358
sg15
Nsg19
Nsg115
S'uint32'
p359
sg16
Nsbag1
(g109
g3
NtRp360
(dp361
g112
Nsg113
S'0'
sg35
S'private_footprint_kb'
p362
sg15
Nsg19
Nsg115
S'uint32'
p363
sg16
Nsbag1
(g109
g3
NtRp364
(dp365
g112
Nsg113
S'0'
sg35
S'shared_footprint_kb'
p366
sg15
Nsg19
Nsg115
S'uint32'
p367
sg16
Nsbag1
(g109
g3
NtRp368
(dp369
g112
Nsg113
S'0'
sg35
S'private_footprint_swap_kb'
p370
sg15
g1
(cmojom.parse.ast
AttributeList
p371
g3
NtRp372
(dp373
g10
(lp374
g1
(cmojom.parse.ast
Attribute
p375
g3
NtRp376
(dp377
g34
S'private_swap_info'
p378
sg16
I159
sS'key'
p379
S'EnableIf'
p380
sg19
g20
sbasg16
I159
sg19
g20
sbsg19
Nsg115
S'uint32'
p381
sg16
Nsbasg16
Nsg19
Nsbsg15
Nsg16
Nsg35
S'OSMemDump'
p382
sg19
Nsbag1
(g101
g3
NtRp383
(dp384
g104
g1
(g105
g3
NtRp385
(dp386
g10
(lp387
g1
(g109
g3
NtRp388
(dp389
g112
Nsg113
Nsg35
S'numeric_entries'
p390
sg15
Nsg19
Nsg115
S'uint64{string}'
p391
sg16
Nsbasg16
Nsg19
Nsbsg15
Nsg16
Nsg35
S'AllocatorMemDump'
p392
sg19
Nsbag1
(g101
g3
NtRp393
(dp394
g104
g1
(g105
g3
NtRp395
(dp396
g10
(lp397
g1
(g109
g3
NtRp398
(dp399
g112
Nsg113
Nsg35
S'process_type'
p400
sg15
Nsg19
Nsg115
S'ProcessType'
p401
sg16
Nsbag1
(g109
g3
NtRp402
(dp403
g112
Nsg113
Nsg35
S'os_dump'
p404
sg15
Nsg19
Nsg115
S'OSMemDump'
p405
sg16
Nsbag1
(g109
g3
NtRp406
(dp407
g112
Nsg113
Nsg35
S'chrome_allocator_dumps'
p408
sg15
Nsg19
Nsg115
S'AllocatorMemDump{string}'
p409
sg16
Nsbag1
(g109
g3
NtRp410
(dp411
g112
Nsg113
Nsg35
S'pid'
p412
sg15
Nsg19
Nsg115
S'mojo_base.mojom.ProcessId'
p413
sg16
Nsbasg16
Nsg19
Nsbsg15
Nsg16
Nsg35
S'ProcessMemoryDump'
p414
sg19
Nsbag1
(g101
g3
NtRp415
(dp416
g104
g1
(g105
g3
NtRp417
(dp418
g10
(lp419
g1
(g109
g3
NtRp420
(dp421
g112
Nsg113
Nsg35
S'process_dumps'
p422
sg15
Nsg19
Nsg115
S'ProcessMemoryDump[]'
p423
sg16
Nsbasg16
Nsg19
Nsbsg15
Nsg16
Nsg35
S'GlobalMemoryDump'
p424
sg19
Nsbag1
(cmojom.parse.ast
Interface
p425
g3
NtRp426
(dp427
g104
g1
(cmojom.parse.ast
InterfaceBody
p428
g3
NtRp429
(dp430
g10
(lp431
g1
(cmojom.parse.ast
Method
p432
g3
NtRp433
(dp434
g112
Nsg35
S'RequestChromeMemoryDump'
p435
sS'parameter_list'
p436
g1
(cmojom.parse.ast
ParameterList
p437
g3
NtRp438
(dp439
g10
(lp440
g1
(cmojom.parse.ast
Parameter
p441
g3
NtRp442
(dp443
g112
Nsg35
S'args'
p444
sg15
Nsg19
g20
sg115
S'RequestArgs'
p445
sg16
I203
sbasg16
I203
sg19
g20
sbsg15
Nsg19
Nsg16
NsS'response_parameter_list'
p446
g1
(g437
g3
NtRp447
(dp448
g10
(lp449
g1
(g441
g3
NtRp450
(dp451
g112
Nsg35
S'success'
p452
sg15
Nsg19
g20
sg115
S'bool'
p453
sg16
I204
sbag1
(g441
g3
NtRp454
(dp455
g112
Nsg35
S'dump_id'
p456
sg15
Nsg19
g20
sg115
S'uint64'
p457
sg16
I204
sbag1
(g441
g3
NtRp458
(dp459
g112
Nsg35
S'raw_process_memory_dump'
p460
sg15
Nsg19
g20
sg115
S'RawProcessMemoryDump?'
p461
sg16
I204
sbasg16
I204
sg19
g20
sbsbag1
(g432
g3
NtRp462
(dp463
g112
Nsg35
S'RequestOSMemoryDump'
p464
sg436
g1
(g437
g3
NtRp465
(dp466
g10
(lp467
g1
(g441
g3
NtRp468
(dp469
g112
Nsg35
S'option'
p470
sg15
Nsg19
g20
sg115
S'MemoryMapOption'
p471
sg16
I220
sbag1
(g441
g3
NtRp472
(dp473
g112
Nsg35
S'pids'
p474
sg15
Nsg19
g20
sg115
S'mojo_base.mojom.ProcessId[]'
p475
sg16
I220
sbasg16
I220
sg19
g20
sbsg15
Nsg19
Nsg16
Nsg446
g1
(g437
g3
NtRp476
(dp477
g10
(lp478
g1
(g441
g3
NtRp479
(dp480
g112
Nsg35
S'success'
p481
sg15
Nsg19
g20
sg115
S'bool'
p482
sg16
I221
sbag1
(g441
g3
NtRp483
(dp484
g112
Nsg35
S'dumps'
p485
sg15
Nsg19
g20
sg115
S'RawOSMemDump{mojo_base.mojom.ProcessId}'
p486
sg16
I221
sbasg16
I221
sg19
g20
sbsbasg16
Nsg19
Nsbsg15
Nsg16
Nsg35
S'ClientProcess'
p487
sg19
Nsbag1
(g101
g3
NtRp488
(dp489
g104
g1
(g105
g3
NtRp490
(dp491
g10
(lp492
g1
(g109
g3
NtRp493
(dp494
g112
Nsg113
Nsg35
S'buffer'
p495
sg15
Nsg19
Nsg115
S'handle<shared_buffer>'
p496
sg16
Nsbag1
(g109
g3
NtRp497
(dp498
g112
Nsg113
Nsg35
S'size'
p499
sg15
Nsg19
Nsg115
S'uint32'
p500
sg16
Nsbag1
(g109
g3
NtRp501
(dp502
g112
Nsg113
Nsg35
S'pid'
p503
sg15
Nsg19
Nsg115
S'mojo_base.mojom.ProcessId'
p504
sg16
Nsbasg16
Nsg19
Nsbsg15
Nsg16
Nsg35
S'SharedBufferWithSize'
p505
sg19
Nsbag1
(g425
g3
NtRp506
(dp507
g104
g1
(g428
g3
NtRp508
(dp509
g10
(lp510
g1
(g432
g3
NtRp511
(dp512
g112
Nsg35
S'DumpProcessesForTracing'
p513
sg436
g1
(g437
g3
NtRp514
(dp515
g10
(lp516
g1
(g441
g3
NtRp517
(dp518
g112
Nsg35
S'strip_path_from_mapped_files'
p519
sg15
Nsg19
g20
sg115
S'bool'
p520
sg16
I247
sbasg16
I247
sg19
g20
sbsg15
Nsg19
Nsg16
Nsg446
g1
(g437
g3
NtRp521
(dp522
g10
(lp523
g1
(g441
g3
NtRp524
(dp525
g112
Nsg35
S'buffers'
p526
sg15
Nsg19
g20
sg115
S'SharedBufferWithSize[]'
p527
sg16
I248
sbasg16
I248
sg19
g20
sbsbasg16
Nsg19
Nsbsg15
Nsg16
Nsg35
S'HeapProfiler'
p528
sg19
Nsbag1
(g425
g3
NtRp529
(dp530
g104
g1
(g428
g3
NtRp531
(dp532
g10
(lp533
g1
(g432
g3
NtRp534
(dp535
g112
Nsg35
S'GetVmRegionsForHeapProfiler'
p536
sg436
g1
(g437
g3
NtRp537
(dp538
g10
(lp539
g1
(g441
g3
NtRp540
(dp541
g112
Nsg35
S'pids'
p542
sg15
Nsg19
g20
sg115
S'mojo_base.mojom.ProcessId[]'
p543
sg16
I256
sbasg16
I256
sg19
g20
sbsg15
Nsg19
Nsg16
Nsg446
g1
(g437
g3
NtRp544
(dp545
g10
(lp546
g1
(g441
g3
NtRp547
(dp548
g112
Nsg35
S'vm_regions'
p549
sg15
Nsg19
g20
sg115
S'VmRegion[]{mojo_base.mojom.ProcessId}'
p550
sg16
I257
sbasg16
I257
sg19
g20
sbsbasg16
Nsg19
Nsbsg15
Nsg16
Nsg35
S'HeapProfilerHelper'
p551
sg19
Nsbag1
(g425
g3
NtRp552
(dp553
g104
g1
(g428
g3
NtRp554
(dp555
g10
(lp556
g1
(g432
g3
NtRp557
(dp558
g112
Nsg35
S'RegisterClientProcess'
p559
sg436
g1
(g437
g3
NtRp560
(dp561
g10
(lp562
g1
(g441
g3
NtRp563
(dp564
g112
Nsg35
S'client_process'
p565
sg15
Nsg19
g20
sg115
S'ClientProcess'
p566
sg16
I265
sbag1
(g441
g3
NtRp567
(dp568
g112
Nsg35
S'process_type'
p569
sg15
Nsg19
g20
sg115
S'ProcessType'
p570
sg16
I265
sbasg16
I265
sg19
g20
sbsg15
Nsg19
Nsg16
Nsg446
Nsbag1
(g432
g3
NtRp571
(dp572
g112
Nsg35
S'RequestGlobalMemoryDump'
p573
sg436
g1
(g437
g3
NtRp574
(dp575
g10
(lp576
g1
(g441
g3
NtRp577
(dp578
g112
Nsg35
S'dump_type'
p579
sg15
Nsg19
g20
sg115
S'DumpType'
p580
sg16
I272
sbag1
(g441
g3
NtRp581
(dp582
g112
Nsg35
S'level_of_detail'
p583
sg15
Nsg19
g20
sg115
S'LevelOfDetail'
p584
sg16
I273
sbag1
(g441
g3
NtRp585
(dp586
g112
Nsg35
S'allocator_dump_names'
p587
sg15
Nsg19
g20
sg115
S'string[]'
p588
sg16
I274
sbasg16
I272
sg19
g20
sbsg15
Nsg19
Nsg16
Nsg446
g1
(g437
g3
NtRp589
(dp590
g10
(lp591
g1
(g441
g3
NtRp592
(dp593
g112
Nsg35
S'success'
p594
sg15
Nsg19
g20
sg115
S'bool'
p595
sg16
I275
sbag1
(g441
g3
NtRp596
(dp597
g112
Nsg35
S'global_memory_dump'
p598
sg15
Nsg19
g20
sg115
S'GlobalMemoryDump?'
p599
sg16
I275
sbasg16
I275
sg19
g20
sbsbag1
(g432
g3
NtRp600
(dp601
g112
Nsg35
S'RequestGlobalMemoryDumpForPid'
p602
sg436
g1
(g437
g3
NtRp603
(dp604
g10
(lp605
g1
(g441
g3
NtRp606
(dp607
g112
Nsg35
S'pid'
p608
sg15
Nsg19
g20
sg115
S'mojo_base.mojom.ProcessId'
p609
sg16
I279
sbag1
(g441
g3
NtRp610
(dp611
g112
Nsg35
S'allocator_dump_names'
p612
sg15
Nsg19
g20
sg115
S'string[]'
p613
sg16
I280
sbasg16
I279
sg19
g20
sbsg15
Nsg19
Nsg16
Nsg446
g1
(g437
g3
NtRp614
(dp615
g10
(lp616
g1
(g441
g3
NtRp617
(dp618
g112
Nsg35
S'success'
p619
sg15
Nsg19
g20
sg115
S'bool'
p620
sg16
I281
sbag1
(g441
g3
NtRp621
(dp622
g112
Nsg35
S'global_memory_dump'
p623
sg15
Nsg19
g20
sg115
S'GlobalMemoryDump?'
p624
sg16
I281
sbasg16
I281
sg19
g20
sbsbag1
(g432
g3
NtRp625
(dp626
g112
Nsg35
S'RequestGlobalMemoryDumpAndAppendToTrace'
p627
sg436
g1
(g437
g3
NtRp628
(dp629
g10
(lp630
g1
(g441
g3
NtRp631
(dp632
g112
Nsg35
S'dump_type'
p633
sg15
Nsg19
g20
sg115
S'DumpType'
p634
sg16
I285
sbag1
(g441
g3
NtRp635
(dp636
g112
Nsg35
S'level_of_detail'
p637
sg15
Nsg19
g20
sg115
S'LevelOfDetail'
p638
sg16
I286
sbasg16
I285
sg19
g20
sbsg15
Nsg19
Nsg16
Nsg446
g1
(g437
g3
NtRp639
(dp640
g10
(lp641
g1
(g441
g3
NtRp642
(dp643
g112
Nsg35
S'success'
p644
sg15
Nsg19
g20
sg115
S'bool'
p645
sg16
I287
sbag1
(g441
g3
NtRp646
(dp647
g112
Nsg35
S'dump_id'
p648
sg15
Nsg19
g20
sg115
S'uint64'
p649
sg16
I287
sbasg16
I287
sg19
g20
sbsbag1
(g432
g3
NtRp650
(dp651
g112
Nsg35
S'RegisterHeapProfiler'
p652
sg436
g1
(g437
g3
NtRp653
(dp654
g10
(lp655
g1
(g441
g3
NtRp656
(dp657
g112
Nsg35
S'heap_profiler'
p658
sg15
Nsg19
g20
sg115
S'HeapProfiler'
p659
sg16
I294
sbasg16
I294
sg19
g20
sbsg15
Nsg19
Nsg16
Nsg446
Nsbasg16
Nsg19
Nsbsg15
Nsg16
Nsg35
S'Coordinator'
p660
sg19
Nsbasg16
NsS'module'
p661
g1
(cmojom.parse.ast
Module
p662
g3
NtRp663
(dp664
S'mojom_namespace'
p665
(S'IDENTIFIER'
p666
S'memory_instrumentation.mojom'
tp667
sg16
I5
sg15
Nsg19
g20
sbsg19
Nsb.